(ioptimization
OptimizationTestComparison
p0
(dp2
S'category'
p3
S'success'
p4
sS'changedResults'
p5
(lp6
sS'missingResults'
p7
(lp8
sS'freeText'
p9
S''
p10
sS'started'
p11
I1
sS'appWriteDir'
p12
S'/users/hamid/texttesttmp/apc.master.sparc_64hamid20Dec220033'
p13
sS'costName'
p14
S'TOTAL cost'
p15
sS'briefText'
p16
g10
sS'executionHosts'
p17
(lp18
S'sundance'
p19
asS'logStem'
p20
S'status'
p21
sS'appAbsPath'
p22
S'/carm/proj/matador2/publish/master/Testing/Automatic/picador'
p23
sS'allResults'
p24
(lp25
(icomparefile
FileComparison
p26
(dp27
S'stdFile'
p28
S'/carm/proj/matador2/publish/master/Testing/Automatic/picador/RD_lh_pac/small_A320_COC_boost/error.apc.sparc'
p29
sS'severity'
p30
I1
sS'differenceId'
p31
I0
sS'differenceCache'
p32
I0
sS'tmpFile'
p33
S'/users/hamid/texttesttmp/apc.master.sparc_64hamid20Dec220033/RD_lh_pac/small_A320_COC_boost/error.apc.sparc'
p34
sS'stdCmpFile'
p35
g29
sS'tmpCmpFile'
p36
g34
sS'stem'
p37
S'error'
p38
sba(iperformance
PerformanceFileComparison
p39
(dp40
g28
S'/carm/proj/matador2/publish/master/Testing/Automatic/picador/RD_lh_pac/small_A320_COC_boost/memory.apc.sparc_64'
p41
sg31
I0
sS'newPerformance'
p42
F167.5
sS'oldPerformance'
p43
F168.09999999999999
sg32
I0
sg33
S'/users/hamid/texttesttmp/apc.master.sparc_64hamid20Dec220033/RD_lh_pac/small_A320_COC_boost/memory.apc.sparc_64'
p44
sg35
g41
sS'percentageChange'
p45
F0.35820895522387719
sg36
g44
sS'descriptors'
p46
(dp47
S'goodperf'
p48
S'smaller'
p49
sS'badperf'
p50
S'larger'
p51
sS'config'
p52
S'memory'
p53
ssS'processCount'
p54
I1
sg37
g53
sS'perfComparison'
p55
(iperformance
PerformanceComparison
p56
(dp57
S'percentageChange'
p58
F0.35820895522387719
sS'oldPerformance'
p59
F168.09999999999999
sS'newPerformance'
p60
F167.5
sS'descriptor'
p61
S'smaller'
p62
sbsg30
I99
sba(icomparefile
FileComparison
p63
(dp64
g28
S'/carm/proj/matador2/publish/master/Testing/Automatic/picador/RD_lh_pac/small_A320_COC_boost/peval.apc'
p65
sg30
I99
sg31
I0
sg32
I0
sg33
S'/users/hamid/texttesttmp/apc.master.sparc_64hamid20Dec220033/RD_lh_pac/small_A320_COC_boost/peval.apc'
p66
sg35
g65
sg36
g66
sg37
S'peval'
p67
sba(icomparefile
FileComparison
p68
(dp69
g28
S'/carm/proj/matador2/publish/master/Testing/Automatic/picador/RD_lh_pac/small_A320_COC_boost/peval2.apc'
p70
sg30
I99
sg31
I0
sg32
I0
sg33
S'/users/hamid/texttesttmp/apc.master.sparc_64hamid20Dec220033/RD_lh_pac/small_A320_COC_boost/peval2.apc'
p71
sg35
S'/users/hamid/texttesttmp/apc.master.sparc_64hamid20Dec220033/RD_lh_pac/small_A320_COC_boost/framework_tmp/peval2.apcorigcmp'
p72
sg36
S'/users/hamid/texttesttmp/apc.master.sparc_64hamid20Dec220033/RD_lh_pac/small_A320_COC_boost/framework_tmp/peval2.apccmp'
p73
sg37
S'peval2'
p74
sba(icomparefile
FileComparison
p75
(dp76
g28
S'/carm/proj/matador2/publish/master/Testing/Automatic/picador/RD_lh_pac/small_A320_COC_boost/solution.apc.sparc_64'
p77
sg30
I1
sg31
I0
sg32
I0
sg33
S'/users/hamid/texttesttmp/apc.master.sparc_64hamid20Dec220033/RD_lh_pac/small_A320_COC_boost/solution.apc.sparc_64'
p78
sg35
g77
sg36
g78
sg37
S'solution'
p79
sba(icomparefile
FileComparison
p80
(dp81
g28
S'/carm/proj/matador2/publish/master/Testing/Automatic/picador/RD_lh_pac/small_A320_COC_boost/status.apc.sparc_64'
p82
sg30
I1
sg31
I0
sg32
I0
sg33
S'/users/hamid/texttesttmp/apc.master.sparc_64hamid20Dec220033/RD_lh_pac/small_A320_COC_boost/status.apc.sparc_64'
p83
sg35
S'/users/hamid/texttesttmp/apc.master.sparc_64hamid20Dec220033/RD_lh_pac/small_A320_COC_boost/framework_tmp/status.apc.sparc_64origcmp'
p84
sg36
S'/users/hamid/texttesttmp/apc.master.sparc_64hamid20Dec220033/RD_lh_pac/small_A320_COC_boost/framework_tmp/status.apc.sparc_64cmp'
p85
sg37
g21
sba(icomparefile
FileComparison
p86
(dp87
g28
S'/carm/proj/matador2/publish/master/Testing/Automatic/picador/RD_lh_pac/small_A320_COC_boost/warnings.apc.sparc_64'
p88
sg30
I1
sg31
I0
sg32
I0
sg33
S'/users/hamid/texttesttmp/apc.master.sparc_64hamid20Dec220033/RD_lh_pac/small_A320_COC_boost/warnings.apc.sparc_64'
p89
sg35
S'/users/hamid/texttesttmp/apc.master.sparc_64hamid20Dec220033/RD_lh_pac/small_A320_COC_boost/framework_tmp/warnings.apc.sparc_64origcmp'
p90
sg36
S'/users/hamid/texttesttmp/apc.master.sparc_64hamid20Dec220033/RD_lh_pac/small_A320_COC_boost/framework_tmp/warnings.apc.sparc_64cmp'
p91
sg37
S'warnings'
p92
sbasS'correctResults'
p93
(lp94
g26
ag39
ag63
ag68
ag75
ag80
ag86
asS'lifecycleChange'
p95
g10
sS'failedPrediction'
p96
NsS'completed'
p97
I1
sS'newResults'
p98
(lp99
sb.