(ioptimization
OptimizationTestComparison
p0
(dp2
S'category'
p3
S'larger'
p4
sS'changedResults'
p5
(lp6
(iperformance
PerformanceFileComparison
p7
(dp8
S'stdFile'
p9
S'/carm/master/Testing/Automatic/picador/RD_lh_pac/small_A320_COC_boost/memory.apc.sparc_64'
p10
sS'differenceId'
p11
I1
sS'newPerformance'
p12
F168.19999999999999
sS'oldPerformance'
p13
F164.80000000000001
sS'differenceCache'
p14
I1
sS'tmpFile'
p15
S'/users/nightjob/texttesttmp/apc.master.sparc_64nightjob14Dec221117/RD_lh_pac/small_A320_COC_boost/memory.apc.sparc_64'
p16
sS'stdCmpFile'
p17
g10
sS'percentageChange'
p18
F2.0631067961164908
sS'tmpCmpFile'
p19
g16
sS'descriptors'
p20
(dp21
S'goodperf'
p22
S'smaller'
p23
sS'badperf'
p24
g4
sS'config'
p25
S'memory'
p26
ssS'processCount'
p27
I1
sS'stem'
p28
g26
sS'perfComparison'
p29
(iperformance
PerformanceComparison
p30
(dp31
S'percentageChange'
p32
F2.0631067961164908
sS'oldPerformance'
p33
F164.80000000000001
sS'newPerformance'
p34
F168.19999999999999
sS'descriptor'
p35
S'larger'
p36
sbsS'severity'
p37
I99
sbasS'missingResults'
p38
(lp39
sS'freeText'
p40
S'------------------ Differences in memory(larger) --------------------\n1c1\n< Max Memory  :      164.8 MB\n---\n> Max Memory  :      168.2 MB\n'
p41
sS'started'
p42
I1
sS'appWriteDir'
p43
S'/users/nightjob/texttesttmp/apc.master.sparc_64nightjob14Dec221117'
p44
sS'costName'
p45
S'TOTAL cost'
p46
sS'briefText'
p47
S''
p48
sS'executionHosts'
p49
(lp50
S'sundance'
p51
asS'logStem'
p52
S'status'
p53
sS'appAbsPath'
p54
S'/carm/master/Testing/Automatic/picador'
p55
sS'allResults'
p56
(lp57
(icomparefile
FileComparison
p58
(dp59
g9
S'/carm/master/Testing/Automatic/picador/RD_lh_pac/small_A320_COC_boost/error.apc.sparc'
p60
sg37
I1
sg11
I0
sg14
I0
sg15
S'/users/nightjob/texttesttmp/apc.master.sparc_64nightjob14Dec221117/RD_lh_pac/small_A320_COC_boost/error.apc.sparc'
p61
sg17
g60
sg19
g61
sg28
S'error'
p62
sbag7
a(icomparefile
FileComparison
p63
(dp64
g9
S'/carm/master/Testing/Automatic/picador/RD_lh_pac/small_A320_COC_boost/peval.apc'
p65
sg37
I99
sg11
I0
sg14
I0
sg15
S'/users/nightjob/texttesttmp/apc.master.sparc_64nightjob14Dec221117/RD_lh_pac/small_A320_COC_boost/peval.apc'
p66
sg17
g65
sg19
g66
sg28
S'peval'
p67
sba(icomparefile
FileComparison
p68
(dp69
g9
S'/carm/master/Testing/Automatic/picador/RD_lh_pac/small_A320_COC_boost/peval2.apc'
p70
sg37
I99
sg11
I0
sg14
I0
sg15
S'/users/nightjob/texttesttmp/apc.master.sparc_64nightjob14Dec221117/RD_lh_pac/small_A320_COC_boost/peval2.apc'
p71
sg17
S'/users/nightjob/texttesttmp/apc.master.sparc_64nightjob14Dec221117/RD_lh_pac/small_A320_COC_boost/framework_tmp/peval2.apcorigcmp'
p72
sg19
S'/users/nightjob/texttesttmp/apc.master.sparc_64nightjob14Dec221117/RD_lh_pac/small_A320_COC_boost/framework_tmp/peval2.apccmp'
p73
sg28
S'peval2'
p74
sba(icomparefile
FileComparison
p75
(dp76
g9
S'/carm/master/Testing/Automatic/picador/RD_lh_pac/small_A320_COC_boost/solution.apc.sparc_64'
p77
sg37
I1
sg11
I0
sg14
I0
sg15
S'/users/nightjob/texttesttmp/apc.master.sparc_64nightjob14Dec221117/RD_lh_pac/small_A320_COC_boost/solution.apc.sparc_64'
p78
sg17
g77
sg19
g78
sg28
S'solution'
p79
sba(icomparefile
FileComparison
p80
(dp81
g9
S'/carm/master/Testing/Automatic/picador/RD_lh_pac/small_A320_COC_boost/status.apc.sparc_64'
p82
sg37
I1
sg11
I0
sg14
I0
sg15
S'/users/nightjob/texttesttmp/apc.master.sparc_64nightjob14Dec221117/RD_lh_pac/small_A320_COC_boost/status.apc.sparc_64'
p83
sg17
S'/users/nightjob/texttesttmp/apc.master.sparc_64nightjob14Dec221117/RD_lh_pac/small_A320_COC_boost/framework_tmp/status.apc.sparc_64origcmp'
p84
sg19
S'/users/nightjob/texttesttmp/apc.master.sparc_64nightjob14Dec221117/RD_lh_pac/small_A320_COC_boost/framework_tmp/status.apc.sparc_64cmp'
p85
sg28
g53
sba(icomparefile
FileComparison
p86
(dp87
g9
S'/carm/master/Testing/Automatic/picador/RD_lh_pac/small_A320_COC_boost/warnings.apc.sparc_64'
p88
sg37
I1
sg11
I0
sg14
I0
sg15
S'/users/nightjob/texttesttmp/apc.master.sparc_64nightjob14Dec221117/RD_lh_pac/small_A320_COC_boost/warnings.apc.sparc_64'
p89
sg17
S'/users/nightjob/texttesttmp/apc.master.sparc_64nightjob14Dec221117/RD_lh_pac/small_A320_COC_boost/framework_tmp/warnings.apc.sparc_64origcmp'
p90
sg19
S'/users/nightjob/texttesttmp/apc.master.sparc_64nightjob14Dec221117/RD_lh_pac/small_A320_COC_boost/framework_tmp/warnings.apc.sparc_64cmp'
p91
sg28
S'warnings'
p92
sbasS'correctResults'
p93
(lp94
g58
ag63
ag68
ag75
ag80
ag86
asS'lifecycleChange'
p95
g48
sS'failedPrediction'
p96
NsS'completed'
p97
I1
sS'newResults'
p98
(lp99
sb.