(iperformance
PerformanceTestComparison
p1
(dp2
S'category'
p3
S'failure'
p4
sS'changedResults'
p5
(lp6
(icomparetest
FileComparison
p7
(dp8
S'stdFile'
p9
S'/users/fakeuser/work/master/Testing/Automatic/texttest/carmen/matador/TargetApp/ArtificialUser/generate_in_subperiod/output.cas.10'
sS'severity'
p10
I1
sS'differenceId'
p11
I1
sS'tmpFile'
p12
S'/users/fakeuser/work/master/Testing/Automatic/texttest/carmen/matador/TargetApp/./cas.10fakeuser28Sep093112/ArtificialUser/generate_in_subperiod/output.cas.10'
sS'stdCmpFile'
p13
S'/users/fakeuser/work/master/Testing/Automatic/texttest/carmen/matador/TargetApp/./cas.10fakeuser28Sep093112/ArtificialUser/generate_in_subperiod/framework_tmp/output.cas.10origcmp'
p14
sS'stem'
p15
S'output'
sS'tmpCmpFile'
p16
S'/users/fakeuser/work/master/Testing/Automatic/texttest/carmen/matador/TargetApp/./cas.10fakeuser28Sep093112/ArtificialUser/generate_in_subperiod/framework_tmp/output.cas.10cmp'
p17
sbasS'freeText'
p18
S'------------------ Differences in output --------------------\n71c71\n<   Total cost of plan..................................: 154585\n---\n>   Total cost of plan..................................: 132585\n210c210\n<   Total cost of plan..................................: 154143\n---\n>   Total cost of plan..................................: 132143\n899c899\n<   Total cost of plan..................................: 115404\n---\n>   Total cost of plan..................................: 113204\n1316c1316\n<   Total cost of plan..................................: 101905\n---\n>   Total cost of plan..................................: 111905\n1455c1455\n<   Total cost of plan..................................: 101805\n---\n>   Total cost of plan..................................: 111805\n1594c1594\n<   Total cost of plan..................................: 101505\n---\n>   Total cost of plan..................................: 111505\n1597c1597\n<   Total cost of unassigned slots......................: 101000\n---\n>   Total cost of unassigned slots......................: 111000\n1620c1620\n<   Number of slots (unassigned)........................: 1010\n'
sS'started'
p19
I1
sS'diag'
p20
(ilog4py
Logger
p21
(dp22
S'_Logger__Logger_functionname'
p23
S''
sS'_Logger__Logger_module'
p24
S''
sS'_Logger__Logger_linenumber'
p25
I-1
sS'_Logger__Logger_classname'
p26
S'testcomparison'
p27
sS'_Logger__Logger_targets'
p28
(lp29
S'sys.stdout'
p30
asS'_Logger__Logger_formatstring'
p31
S'%T %L %C [%F] %x%M'
p32
sS'_Logger__Logger_filename'
p33
S''
sS'_Logger__Logger_classid'
p34
NsS'_Logger__Logger_timelaststep'
p35
F1096356672.428077
sS'_Logger__Logger_configfilename'
p36
S''
sS'_Logger__Logger_useansicodes'
p37
S'FALSE'
p38
sS'_Logger__Logger_timeinit'
p39
F1096356672.428077
sS'_Logger__Logger_loglevel'
p40
I1
sS'_Logger__Logger_timeformat'
p41
S'%m/%d/%y %H:%M:%S'
p42
sS'_Logger__Logger_ndc'
p43
(lsbsS'completed'
p44
I1
sS'briefText'
p45
S''
sS'appAbsPath'
p46
S'/users/fakeuser/work/master/Testing/Automatic/texttest/carmen/matador/TargetApp'
p47
sS'allResults'
p48
(lp49
(icomparetest
FileComparison
p50
(dp51
g9
S'/users/fakeuser/work/master/Testing/Automatic/texttest/carmen/matador/TargetApp/ArtificialUser/generate_in_subperiod/errors.cas'
sg10
I1
sg11
I0
sg12
S'/users/fakeuser/work/master/Testing/Automatic/texttest/carmen/matador/TargetApp/./cas.10fakeuser28Sep093112/ArtificialUser/generate_in_subperiod/errors.cas'
sg13
S'/users/fakeuser/work/master/Testing/Automatic/texttest/carmen/matador/TargetApp/./cas.10fakeuser28Sep093112/ArtificialUser/generate_in_subperiod/framework_tmp/errors.casorigcmp'
p52
sg15
S'errors'
sg16
S'/users/fakeuser/work/master/Testing/Automatic/texttest/carmen/matador/TargetApp/./cas.10fakeuser28Sep093112/ArtificialUser/generate_in_subperiod/framework_tmp/errors.cascmp'
p53
sbag7
a(icomparetest
FileComparison
p54
(dp55
g9
S'/users/fakeuser/work/master/Testing/Automatic/texttest/carmen/matador/TargetApp/ArtificialUser/generate_in_subperiod/solution.cas'
p56
sg10
I99
sg11
I0
sg12
S'/users/fakeuser/work/master/Testing/Automatic/texttest/carmen/matador/TargetApp/./cas.10fakeuser28Sep093112/ArtificialUser/generate_in_subperiod/solution.cas'
p57
sg13
g56
sg15
S'solution'
sg16
g57
sbasS'executionHosts'
p58
(lp59
sS'correctResults'
p60
(lp61
g50
ag54
asS'failedPrediction'
p62
NsS'newResults'
p63
(lsb.
