(iplugins
TestState
p1
(dp2
S'category'
p3
S'unrunnable'
p4
sS'freeText'
p5
S"Test hit SGE's total run time limit, and was killed.\nMaybe it was hanging or maybe it needs to be run in another queue.\n"
sS'started'
p6
I0
sS'completed'
p7
I1
sS'briefText'
p8
S'UNRUNNABLE'
p9
sS'executionHosts'
p10
(lp11
sb.