(iplugins
Unrunnable
p0
(dp1
S'category'
p2
S'unrunnable'
p3
sS'freeText'
p4
S'Failed to build ruleset LBA_MTV_cg\nset SITE to: carmen\nBuild Rave program LBA_MTV_cg started on ramechap, 15 December 21:45\nGenerating code... done.\nBuilding for apc on localhost - 53 files out of 53 need to be compiled\nCompiling... ar: No such file or directory\nar: could not open /carm/master/Products/standard_gpc/CARMSYS/RD_lh_pac_v10_tmp.apc.parisc_2_0/compile/APC/parisc_2_0_opt/LBA_MTV_cgOBJTMP/09bb232c6a19d677e4bb8236f436946d.o\nar: No such file or directory\nar: could not open /carm/master/Products/standard_gpc/CARMSYS/RD_lh_pac_v10_tmp.apc.parisc_2_0/compile/APC/parisc_2_0_opt/LBA_MTV_cgOBJTMP/0c46d08d86adf8ee8fe45b558dd441b6.o\nar: No such file or directory\nar: could not open /carm/master/Products/standard_gpc/CARMSYS/RD_lh_pac_v10_tmp.apc.parisc_2_0/compile/APC/parisc_2_0_opt/LBA_MTV_cgOBJTMP/0ee58c42f32e149ae438ef5c61d2febf.o\nar: No such file or directory\nar: could not open /carm/master/Products/standard_gpc/CARMSYS/RD_lh_pac_v10_tmp.apc.parisc_2_0/compile/APC/parisc_2_0_opt/LBA_MTV_cgOBJTMP/186b947830d9b2bf46c9839247583931.o\nar: No such file or directory\nar: could not open /carm/master/Products/standard_gpc/CARMSYS/RD_lh_pac_v10_tmp.apc.parisc_2_0/compile/APC/parisc_2_0_opt/LBA_MTV_cgOBJTMP/19da4f68a3317b0dd644697d2fbb289d.o\nar: No such file or directory\n... extra data truncated by TextTest ...\nar: could not open /carm/master/Products/standard_gpc/CARMSYS/RD_lh_pac_v10_tmp.apc.parisc_2_0/compile/APC/parisc_2_0_opt/LBA_MTV_cgOBJTMP/e195ed143f5dfe044af5393bb763abff.o\nar: No such file or directory\nar: could not open /carm/master/Products/standard_gpc/CARMSYS/RD_lh_pac_v10_tmp.apc.parisc_2_0/compile/APC/parisc_2_0_opt/LBA_MTV_cgOBJTMP/e2635e23004c7d8620371a5b123baca4.o\nar: No such file or directory\nar: could not open /carm/master/Products/standard_gpc/CARMSYS/RD_lh_pac_v10_tmp.apc.parisc_2_0/compile/APC/parisc_2_0_opt/LBA_MTV_cgOBJTMP/e4cdf26f4b2ad4b896d0efb70e232418.o\nar: No such file or directory\nar: could not open /carm/master/Products/standard_gpc/CARMSYS/RD_lh_pac_v10_tmp.apc.parisc_2_0/compile/APC/parisc_2_0_opt/LBA_MTV_cgOBJTMP/e6c87da4e6a028163a8b066e0db85513.o\nar: No such file or directory\nar: could not open /carm/master/Products/standard_gpc/CARMSYS/RD_lh_pac_v10_tmp.apc.parisc_2_0/compile/APC/parisc_2_0_opt/LBA_MTV_cgOBJTMP/ee986c9d24f3f4f17e0a0b297f568ad2.o\nar: No such file or directory\nar: could not open /carm/master/Products/standard_gpc/CARMSYS/RD_lh_pac_v10_tmp.apc.parisc_2_0/compile/APC/parisc_2_0_opt/LBA_MTV_cgOBJTMP/fa403c4923e891cd303d3d77972d3b84.o\nar: No such file or directory\nar: could not open /carm/master/Products/standard_gpc/CARMSYS/RD_lh_pac_v10_tmp.apc.parisc_2_0/compile/APC/parisc_2_0_opt/LBA_MTV_cgOBJTMP/fc47ede67129eff219793db9bff82a54.o\nar: No such file or directory\nar: could not open /carm/master/Products/standard_gpc/CARMSYS/RD_lh_pac_v10_tmp.apc.parisc_2_0/compile/APC/parisc_2_0_opt/LBA_MTV_cgOBJTMP/ffe189269b55b01cd2a0d761ac3872a6.o\n'
p5
sS'started'
p6
I0
sS'completed'
p7
I1
sS'lifecycleChange'
p8
S''
p9
sS'briefText'
p10
S'Ruleset build failed'
p11
sS'executionHosts'
p12
(lp13
sb.