(iplugins
TestState
p1
(dp2
S'category'
p3
S'strange behaviour'
p4
sS'freeText'
p5
S'Lots of junk appeared.\nAnd then we died.\n'
p6
sS'started'
p7
I0
sS'completed'
p8
I1
sS'lifecycleChange'
p9
S''
sS'briefText'
p10
S"don't get it"
p11
sS'executionHosts'
p12
(lp13
sb.