(icomparetest
TestComparison
p0
(dp2
S'category'
p3
S'success'
p4
sS'changedResults'
p5
(lp6
sS'missingResults'
p7
(lp8
sS'freeText'
p9
S''
p10
sS'started'
p11
I1
sS'appWriteDir'
p12
S'/users/nightjob/texttesttmp/apc.master.parisc_2_0nightjob01Dec214059'
p13
sS'completed'
p14
I1
sS'briefText'
p15
g10
sS'executionHosts'
p16
(lp17
S'haiphong'
p18
asS'appAbsPath'
p19
S'/carm/master/Testing/Automatic/picador'
p20
sS'allResults'
p21
(lp22
(iperformance
PerformanceFileComparison
p23
(dp24
S'stdFile'
p25
S'/carm/master/Testing/Automatic/picador/lh_bascripts/large_gap_daily/memory.apc'
p26
sS'differenceId'
p27
I0
sS'newPerformance'
p28
F12.5
sS'oldPerformance'
p29
F8.1899999999999995
sS'differenceCache'
p30
I0
sS'tmpFile'
p31
S'/users/nightjob/texttesttmp/apc.master.parisc_2_0nightjob01Dec214059/lh_bascripts/large_gap_daily/memory.apc'
p32
sS'stdCmpFile'
p33
g26
sS'processCount'
p34
I1
sS'tmpCmpFile'
p35
g32
sS'descriptors'
p36
(dp37
S'goodperf'
p38
S'smaller'
p39
sS'badperf'
p40
S'larger'
p41
sS'config'
p42
S'memory'
p43
ssS'percentageChange'
p44
F52.625152625152637
sS'stem'
p45
S'memory'
p46
sS'perfComparison'
p47
(iperformance
PerformanceComparison
p48
(dp49
S'percentageChange'
p50
F52.625152625152637
sS'oldPerformance'
p51
F8.1899999999999995
sS'newPerformance'
p52
F12.5
sS'descriptor'
p53
S'larger'
p54
sbsS'severity'
p55
I99
sba(icomparefile
FileComparison
p56
(dp57
g25
S'/carm/master/Testing/Automatic/picador/lh_bascripts/large_gap_daily/solution.apc'
p58
sg55
I1
sg27
I0
sg30
I0
sg31
S'/users/nightjob/texttesttmp/apc.master.parisc_2_0nightjob01Dec214059/lh_bascripts/large_gap_daily/solution.apc'
p59
sg33
g58
sg35
g59
sg45
S'solution'
p60
sba(icomparefile
FileComparison
p61
(dp62
g25
S'/carm/master/Testing/Automatic/picador/lh_bascripts/large_gap_daily/status.apc'
p63
sg55
I1
sg27
I0
sg30
I0
sg31
S'/users/nightjob/texttesttmp/apc.master.parisc_2_0nightjob01Dec214059/lh_bascripts/large_gap_daily/status.apc'
p64
sg33
S'/users/nightjob/texttesttmp/apc.master.parisc_2_0nightjob01Dec214059/lh_bascripts/large_gap_daily/framework_tmp/status.apcorigcmp'
p65
sg35
S'/users/nightjob/texttesttmp/apc.master.parisc_2_0nightjob01Dec214059/lh_bascripts/large_gap_daily/framework_tmp/status.apccmp'
p66
sg45
S'status'
p67
sba(icomparefile
FileComparison
p68
(dp69
g25
S'/carm/master/Testing/Automatic/picador/lh_bascripts/large_gap_daily/warnings.apc'
p70
sg55
I1
sg27
I0
sg30
I0
sg31
S'/users/nightjob/texttesttmp/apc.master.parisc_2_0nightjob01Dec214059/lh_bascripts/large_gap_daily/warnings.apc'
p71
sg33
S'/users/nightjob/texttesttmp/apc.master.parisc_2_0nightjob01Dec214059/lh_bascripts/large_gap_daily/framework_tmp/warnings.apcorigcmp'
p72
sg35
S'/users/nightjob/texttesttmp/apc.master.parisc_2_0nightjob01Dec214059/lh_bascripts/large_gap_daily/framework_tmp/warnings.apccmp'
p73
sg45
S'warnings'
p74
sbasS'correctResults'
p75
(lp76
g23
ag56
ag61
ag68
asS'lifecycleChange'
p77
g10
sS'failedPrediction'
p78
NsS'newResults'
p79
(lp80
sb.