(ioptimization
OptimizationTestComparison
p1
(dp2
S'category'
p3
S'killed'
p4
sS'changedResults'
p5
(lsS'freeText'
p6
S'Test exceeded maximum cpu time allowed\n------------------ New result in errors --------------------\nCpu Limit Exceeded - core dumped\n------------------ New result in output --------------------\nSUBPLAN /users/hamid/texttesttmp/apc.master.sparc_64.boosthamid20Dec220033/RD_nw_pac/96vd10prod-small_new_syntax/RD_nw_pac_v11_user/LOCAL_PLAN/200412/pl-747/monthly1/96vd10prod-small/APC_FILES\nCARMSYS /carm/proj/matador2/publish/master/Products/standard_gpc/CARMSYS\nUsing default settings\n\n\nWARNING\nWhen running at Carmen using \nCARMUSR setting /users/hamid/texttesttmp/apc.master.sparc_64.boosthamid20Dec220033/RD_nw_pac/96vd10prod-small_new_syntax/RD_nw_pac_v11_user\nyou probably need to have a file called\n/users/hamid/.PERSONAL_CONFIG_extension file.\nYOU DON NOT HAVE THIS FILE.\nPlease look in the file\n/users/hamid/texttesttmp/apc.master.sparc_64.boosthamid20Dec220033/RD_nw_pac/96vd10prod-small_new_syntax/RD_nw_pac_v11_user/CONFIG_extension.\nIf you decide to create the file you must restart GPC afterwards.\nPYTHONHOME=/usr/local/sparcv9\nPATH=/usr/local/sparcv9/bin:/users/hamid/texttesttmp/apc.master.sparc_64.boosthamid20Dec220033/RD_nw_pac/96vd10prod-small_new_syntax/RD_nw_pac_v11_user/bin/sparc_64:/users/hamid/texttesttmp/apc.master.sparc_64.boosthamid20Dec220033/RD_nw_pac/96vd10prod-small_new_syntax/RD_nw_pac_v11_user/bin:/carm/proj/matador2/publish/master/Products/standard_gpc/CARMSYS/bin/sparc_64:/carm/proj/matador2/publish/master/Products/standard_gpc/CARMSYS/bin:/carm/proj/matador2/publish/master/Products/standard_gpc/CAR\nMSYS/etc/sparc_64:/carm/proj/matador2/publish/master/Products/standard_gpc/CARMSYS/etc:/usr/xpg4/bin:/usr/local/bin/carmen/master:/usr/vacpp/bin:/opt/aCC/bin:/opt/SUNWspro_9/bin:/users/hamid/texttesttmp/apc.master.sparc_64.boosthamid20Dec220033/RD_nw_pac/96vd10prod-small_new_syntax:/usr/local/ODI/OS5.1/bin:/usr/local/share/sge/bin/sol-sparc64:/opt/SUNWspro_11/bin:/users/hamid:/users/hamid/bin:/usr/local/bin:/opt/gnu/bin:/usr/sfw/bin:/opt/sfw/bin:/usr/openwin/bin:/opt/SUNWmfwm/bin:/usr/bin:/bin:/\nusr/ccs/bin:/usr/ucb:/usr/local/etc:/usr/sbin:/usr/dt/bin:.:/opt/Framemaker_6/webworks/bin:/usr/local/ODI/OSDBC2.0/bin:/opt/Oracle/u1/app/oracle/product/8.1.5/bin:/carm/rational/releases/PurifyPlus.2003a.06.13.FixPack.0177/sun4_solaris2/bin:/carm/proj/3pp/ddts/sol2x_bin:/users/rastjo/Soft/fvwm2/sparc_64/bin:/users/rastjo/Soft/fvwm2/sparc_64/bin:/users/rastjo/Soft/fvwm2/sparc_64/bin\n'
sS'started'
p7
I1
sS'diag'
p8
(ilog4py
Logger
(dp9
S'_Logger__Logger_functionname'
p10
S''
sS'_Logger__Logger_module'
p11
S''
sS'_Logger__Logger_linenumber'
p12
I-1
sS'_Logger__Logger_classname'
p13
S'testcomparison'
p14
sS'_Logger__Logger_targets'
p15
(lp16
S'sys.stdout'
asS'_Logger__Logger_formatstring'
p17
S'%T %L %C [%F] %x%M'
sS'_Logger__Logger_filename'
p18
S''
sS'_Logger__Logger_classid'
p19
NsS'_Logger__Logger_timelaststep'
p20
F1135125103.1569159
sS'_Logger__Logger_configfilename'
p21
S''
sS'_Logger__Logger_ndc'
p22
(lsS'_Logger__Logger_useansicodes'
p23
S'FALSE'
p24
sS'_Logger__Logger_timeinit'
p25
F1135125103.1569159
sS'_Logger__Logger_loglevel'
p26
I1
sS'_Logger__Logger_timeformat'
p27
S'%m/%d/%y %H:%M:%S'
sS'_Logger__Logger_rotation'
p28
I0
sbsS'costName'
p29
S'TOTAL cost'
sS'briefText'
p30
S'CPULIMIT'
p31
sS'executionHosts'
p32
(lp33
S'sundance'
p34
asS'logStem'
p35
S'status'
p36
sS'appAbsPath'
p37
S'/carm/proj/matador2/publish/master/Testing/Automatic/picador'
sS'allResults'
p38
(lp39
(icomparetest
FileComparison
p40
(dp41
S'stdFile'
p42
S'/carm/proj/matador2/publish/master/Testing/Automatic/picador/RD_nw_pac/96vd10prod-small_new_syntax/errors.apc'
p43
sS'severity'
p44
I1
sS'differenceId'
p45
I0
sS'tmpFile'
p46
S'/users/hamid/texttesttmp/apc.master.sparc_64.boosthamid20Dec220033/RD_nw_pac/96vd10prod-small_new_syntax/errors.apc'
p47
sS'stdCmpFile'
p48
g43
sS'stem'
p49
S'errors'
p50
sS'tmpCmpFile'
p51
g47
sba(icomparetest
FileComparison
p52
(dp53
g42
S'/carm/proj/matador2/publish/master/Testing/Automatic/picador/RD_nw_pac/96vd10prod-small_new_syntax/output.apc'
p54
sg44
I1
sg45
I0
sg46
S'/users/hamid/texttesttmp/apc.master.sparc_64.boosthamid20Dec220033/RD_nw_pac/96vd10prod-small_new_syntax/output.apc'
p55
sg48
g54
sg49
S'output'
p56
sg51
g55
sbasS'appWriteDir'
p57
S'/users/hamid/texttesttmp/apc.master.sparc_64.boosthamid20Dec220033'
sS'correctResults'
p58
(lsS'lifecycleChange'
p59
S''
sS'failedPrediction'
p60
(iplugins
TestState
(dp61
g3
g4
sg6
S'Test exceeded maximum cpu time allowed\n'
sg7
I1
sS'completed'
p62
I0
sg59
S''
sg30
g31
sg32
g33
sbsg62
I1
sS'newResults'
p63
(lp64
g40
ag52
asb.