(ioptimization
OptimizationTestComparison
p0
(dp2
S'category'
p3
S'killed'
p4
sS'changedResults'
p5
(lp6
sS'missingResults'
p7
(lp8
sS'freeText'
p9
S'Test exceeded maximum cpu time allowed\n------------------ New result in errors --------------------\nCpu Limit Exceeded - core dumped\n------------------ New result in output --------------------\nSUBPLAN /users/nightjob/texttesttmp/apc.master.sparc_64.boostnightjob14Dec221117/RD_nw_pac/96vd10prod-small_new_syntax/RD_nw_pac_v11_user/LOCAL_PLAN/200412/pl-747/monthly1/96vd10prod-small/APC_FILES\nCARMSYS /carm/master/Products/standard_gpc/CARMSYS\nUsing default settings\n\n\nWARNING\nWhen running at Carmen using \nCARMUSR setting /users/nightjob/texttesttmp/apc.master.sparc_64.boostnightjob14Dec221117/RD_nw_pac/96vd10prod-small_new_syntax/RD_nw_pac_v11_user\nyou probably need to have a file called\n/users/nightjob/.PERSONAL_CONFIG_extension file.\nYOU DON NOT HAVE THIS FILE.\nPlease look in the file\n/users/nightjob/texttesttmp/apc.master.sparc_64.boostnightjob14Dec221117/RD_nw_pac/96vd10prod-small_new_syntax/RD_nw_pac_v11_user/CONFIG_extension.\nIf you decide to create the file you must restart GPC afterwards.\nPYTHONHOME=/usr/local/sparcv9\nPATH=/usr/local/sparcv9/bin:/users/nightjob/texttesttmp/apc.master.sparc_64.boostnightjob14Dec221117/RD_nw_pac/96vd10prod-small_new_syntax/RD_nw_pac_v11_user/bin/sparc_64:/users/nightjob/texttesttmp/apc.master.sparc_64.boostnightjob14Dec221117/RD_nw_pac/96vd10prod-small_new_syntax/RD_nw_pac_v11_user/bin:/carm/master/Products/standard_gpc/CARMSYS/bin/sparc_64:/carm/master/Products/standard_gpc/CARMSYS/bin:/carm/master/Products/standard_gpc/CARMSYS/etc/sparc_64:/carm/master/Products/standard_gpc/C\nARMSYS/etc:/usr/xpg4/bin:/usr/local/bin/carmen/master:/usr/vacpp/bin:/opt/aCC/bin:/opt/SUNWspro_9/bin:/users/nightjob/texttesttmp/apc.master.sparc_64.boostnightjob14Dec221117/RD_nw_pac/96vd10prod-small_new_syntax:/usr/local/ODI/OS5.1/bin:/usr/local/share/sge/bin/sol-sparc64:/opt/SUNWspro_11/bin:/users/nightjob:/users/nightjob/bin:/usr/local/bin:/opt/gnu/bin:/usr/sfw/bin:/opt/sfw/bin:/usr/openwin/bin:/opt/SUNWmfwm/bin:/usr/bin:/bin:/usr/ccs/bin:/usr/ucb:/usr/local/etc:/usr/sbin:/usr/dt/bin:.:/opt\n/Framemaker_6/webworks/bin:/usr/local/ODI/OSDBC2.0/bin:/opt/Oracle/u1/app/oracle/product/8.1.5/bin:/carm/rational/releases/PurifyPlus.2003a.06.13.FixPack.0177/sun4_solaris2/bin:/carm/proj/3pp/ddts/sol2x_bin\n'
p10
sS'started'
p11
I1
sS'appWriteDir'
p12
S'/users/nightjob/texttesttmp/apc.master.sparc_64.boostnightjob14Dec221117'
p13
sS'costName'
p14
S'TOTAL cost'
p15
sS'briefText'
p16
S'CPULIMIT'
p17
sS'executionHosts'
p18
(lp19
S'sundance'
p20
asS'logStem'
p21
S'status'
p22
sS'appAbsPath'
p23
S'/carm/master/Testing/Automatic/picador'
p24
sS'allResults'
p25
(lp26
(icomparefile
FileComparison
p27
(dp28
S'stdFile'
p29
S'/carm/master/Testing/Automatic/picador/RD_nw_pac/96vd10prod-small_new_syntax/errors.apc'
p30
sS'severity'
p31
I1
sS'differenceId'
p32
I0
sS'differenceCache'
p33
I0
sS'tmpFile'
p34
S'/users/nightjob/texttesttmp/apc.master.sparc_64.boostnightjob14Dec221117/RD_nw_pac/96vd10prod-small_new_syntax/errors.apc'
p35
sS'stdCmpFile'
p36
g30
sS'tmpCmpFile'
p37
g35
sS'stem'
p38
S'errors'
p39
sba(icomparefile
FileComparison
p40
(dp41
g29
S'/carm/master/Testing/Automatic/picador/RD_nw_pac/96vd10prod-small_new_syntax/output.apc'
p42
sg31
I1
sg32
I0
sg33
I0
sg34
S'/users/nightjob/texttesttmp/apc.master.sparc_64.boostnightjob14Dec221117/RD_nw_pac/96vd10prod-small_new_syntax/output.apc'
p43
sg36
g42
sg37
g43
sg38
S'output'
p44
sbasS'correctResults'
p45
(lp46
sS'lifecycleChange'
p47
S''
p48
sS'failedPrediction'
p49
(iplugins
TestState
p50
(dp51
g3
g4
sg9
S'Test exceeded maximum cpu time allowed\n'
p52
sg11
I1
sS'completed'
p53
I0
sg47
g48
sg16
g17
sg18
g19
sbsg53
I1
sS'newResults'
p54
(lp55
g27
ag40
asb.