(iplugins
Unrunnable
p0
(dp1
S'category'
p2
S'unrunnable'
p3
sS'freeText'
p4
S'Failed to build ruleset Pilot_tuned_new_syntax\nUsing default settings\n\n\nWARNING\nWhen running at Carmen using \nCARMUSR setting /carm/proj/apc/carmen_11/RD_nw_pac_v11_user\nyou probably need to have a file called\n/users/claesv/.PERSONAL_CONFIG_extension file.\nYOU DON NOT HAVE THIS FILE.\nPlease look in the file\n/carm/proj/apc/carmen_11/RD_nw_pac_v11_user/CONFIG_extension.\nIf you decide to create the file you must restart GPC afterwards.\nPYTHONHOME=/usr/local/sparcv9\nPATH=/usr/local/sparcv9/bin:/carm/proj/apc/carmen_11/RD_nw_pac_v11_user/bin/sparc_64:/carm/proj/apc/carmen_11/RD_nw_pac_v11_user/bin:/carm/proj/matador2/publish/master/Products/standard_gpc/CARMSYS/bin/sparc_64:/carm/proj/matador2/publish/master/Products/standard_gpc/CARMSYS/bin:/carm/proj/matador2/publish/master/Products/standard_gpc/CARMSYS/etc/sparc_64:/carm/proj/matador2/publish/master/Products/standard_gpc/CARMSYS/etc:/usr/xpg4/bin:/usr/local/bin/carmen/master:/usr/vacpp/bin:/opt/aCC/bin:/o\npt/SUNWspro_9/bin:/users/claesv/texttesttmp/apc.master.sparc_64.boostclaesv21Dec222920/RD_nw_pac/96vd10prod-small_new_syntax:/usr/local/ODI/OS5.1/bin:/usr/local/share/sge/bin/sol-sparc64:/usr/local/lsf5/5.1/sparc-sol7-64/bin:/usr/local/lsf5/5.1/sparc-sol7-64/etc:/opt/SUNWspro_11/bin:/users/claesv:/users/claesv/bin:/usr/local/bin:/opt/gnu/bin:/usr/sfw/bin:/opt/sfw/bin:/usr/openwin/bin:/opt/SUNWmfwm/bin:/usr/bin:/bin:/usr/ccs/bin:/usr/ucb:/usr/local/etc:/usr/sbin:/usr/dt/bin:.:/usr/local/ODI/OSDBC\n2.0/bin:/opt/Oracle/u1/app/oracle/product/8.1.5/bin:/carm/rational/releases/PurifyPlus.2003a.06.13.FixPack.0177/sun4_solaris2/bin:/carm/proj/3pp/ddts/sol2x_bin\nBuild Rave program Pilot_tuned_new_syntax started on devilslake, 21 December 22:29\n... extra data truncated by TextTest ...\ncc: cg failed for /carm/proj/matador2/publish/master/Products/standard_gpc/CARMSYS/RD_nw_pac_v11_tmp.apc.sparc_64/compile/APC/Pilot_tuned_new_syntax/3a9d4c97ce979216648184c21aed138e.c\nWait for /carm/proj/matador2/publish/master/Products/standard_gpc/CARMSYS/RD_nw_pac_v11_tmp.apc.sparc_64/compile/APC/sparc_64_opt/Pilot_tuned_new_syntaxOBJTMP/3a9d4c97ce979216648184c21aed138e.o on NFS, retry 1\nWait for /carm/proj/matador2/publish/master/Products/standard_gpc/CARMSYS/RD_nw_pac_v11_tmp.apc.sparc_64/compile/APC/sparc_64_opt/Pilot_tuned_new_syntaxOBJTMP/3a9d4c97ce979216648184c21aed138e.o on NFS, retry 2\nWait for /carm/proj/matador2/publish/master/Products/standard_gpc/CARMSYS/RD_nw_pac_v11_tmp.apc.sparc_64/compile/APC/sparc_64_opt/Pilot_tuned_new_syntaxOBJTMP/3a9d4c97ce979216648184c21aed138e.o on NFS, retry 3\nWait for /carm/proj/matador2/publish/master/Products/standard_gpc/CARMSYS/RD_nw_pac_v11_tmp.apc.sparc_64/compile/APC/sparc_64_opt/Pilot_tuned_new_syntaxOBJTMP/3a9d4c97ce979216648184c21aed138e.o on NFS, retry 4\nWait for /carm/proj/matador2/publish/master/Products/standard_gpc/CARMSYS/RD_nw_pac_v11_tmp.apc.sparc_64/compile/APC/sparc_64_opt/Pilot_tuned_new_syntaxOBJTMP/3a9d4c97ce979216648184c21aed138e.o on NFS, retry 5\nWait for /carm/proj/matador2/publish/master/Products/standard_gpc/CARMSYS/RD_nw_pac_v11_tmp.apc.sparc_64/compile/APC/sparc_64_opt/Pilot_tuned_new_syntaxOBJTMP/3a9d4c97ce979216648184c21aed138e.o on NFS, retry 6\nWait for /carm/proj/matador2/publish/master/Products/standard_gpc/CARMSYS/RD_nw_pac_v11_tmp.apc.sparc_64/compile/APC/sparc_64_opt/Pilot_tuned_new_syntaxOBJTMP/3a9d4c97ce979216648184c21aed138e.o on NFS, retry 7\nWait for /carm/proj/matador2/publish/master/Products/standard_gpc/CARMSYS/RD_nw_pac_v11_tmp.apc.sparc_64/compile/APC/sparc_64_opt/Pilot_tuned_new_syntaxOBJTMP/3a9d4c97ce979216648184c21aed138e.o on NFS, retry 8\nWait for /carm/proj/matador2/publish/master/Products/standard_gpc/CARMSYS/RD_nw_pac_v11_tmp.apc.sparc_64/compile/APC/sparc_64_opt/Pilot_tuned_new_syntaxOBJTMP/3a9d4c97ce979216648184c21aed138e.o on NFS, retry 9\nWait for /carm/proj/matador2/publish/master/Products/standard_gpc/CARMSYS/RD_nw_pac_v11_tmp.apc.sparc_64/compile/APC/sparc_64_opt/Pilot_tuned_new_syntaxOBJTMP/3a9d4c97ce979216648184c21aed138e.o on NFS, retry 10\nTimeout on /carm/proj/matador2/publish/master/Products/standard_gpc/CARMSYS/RD_nw_pac_v11_tmp.apc.sparc_64/compile/APC/sparc_64_opt/Pilot_tuned_new_syntaxOBJTMP/3a9d4c97ce979216648184c21aed138e.o\nar: cannot open /carm/proj/matador2/publish/master/Products/standard_gpc/CARMSYS/RD_nw_pac_v11_tmp.apc.sparc_64/compile/APC/sparc_64_opt/Pilot_tuned_new_syntaxOBJTMP/3a9d4c97ce979216648184c21aed138e.o\n\tNo such file or directory\nar: /carm/proj/matador2/publish/master/Products/standard_gpc/CARMSYS/RD_nw_pac_v11_tmp.apc.sparc_64/compile/APC/sparc_64_opt/Pilot_tuned_new_syntaxOBJTMP/3a9d4c97ce979216648184c21aed138e.o not found\n'
p5
sS'started'
p6
I0
sS'completed'
p7
I1
sS'lifecycleChange'
p8
S''
p9
sS'briefText'
p10
S'Ruleset build failed'
p11
sS'executionHosts'
p12
(lp13
sb.