(ioptimization
OptimizationTestComparison
p1
(dp2
S'category'
p3
S'killed'
p4
sS'changedResults'
p5
(lsS'freeText'
p6
S'Test exceeded maximum cpu time allowed\n------------------ New result in all --------------------\nPO-file Standard.po loaded successfully\nTime:  0 s real  140 ms cpu  0 ms cpu_child  memory:  28.0 Mb\nDelta: 0 s real  0 ms cpu  0 ms cpu_child  memory:  28.0 Mb\n/carm/master/Products/standard_gpc/CARMSYS/RD_nw_pac_v11_tmp.apc/crc/rule_set/APC/sparc_64/.Pilot_tuned_new_syntax.nightjob.28660\n-E\n-s /users/nightjob/texttesttmp/apc.master.sparc_64.boostnightjob13Dec235444/RD_nw_pac/96vd10prod-small_new_syntax/RD_nw_pac_v11_user/LOCAL_PLAN/200412/pl-747/monthly1/96vd10prod-small/APC_FILES\n-v 1\n-R /opt/apc_temp/96vd10prod-small_28660/APC_rot\n-I /users/nightjob/texttesttmp/apc.master.sparc_64.boostnightjob13Dec235444/RD_nw_pac/96vd10prod-small_new_syntax/RD_nw_pac_v11_user/LOCAL_PLAN/200412/pl-747/monthly1/96vd10prod-small/APC_FILES/run_status\n-U nightjob\nexecutable name is [/carm/master/Products/standard_gpc/CARMSYS/RD_nw_pac_v11_tmp.apc/crc/rule_set/APC/sparc_64/.Pilot_tuned_new_syntax.nightjob.28660]\ncarmsys: /carm/master/Products/standard_gpc/CARMSYS\ncarmusr: /users/nightjob/texttesttmp/apc.master.sparc_64.boostnightjob13Dec235444/RD_nw_pac/96vd10prod-small_new_syntax/RD_nw_pac_v11_user\ncarmtmp: /carm/master/Products/standard_gpc/CARMSYS/RD_nw_pac_v11_tmp.apc\nlp_etab_dir:  /carm/proj/apc/carmen_11/RD_nw_pac_v11_user/LOCAL_PLAN/200412/pl-747/monthly1/etable\nsp_etab_dir:  /carm/proj/apc/carmen_11/RD_nw_pac_v11_user/LOCAL_PLAN/200412/pl-747/monthly1/96vd10prod-small/etable\nairport file: /users/nightjob/texttesttmp/apc.master.sparc_64.boostnightjob13Dec235444/RD_nw_pac/96vd10prod-small_new_syntax/RD_nw_pac_v11_user/data/Airport/bin/NWA_AirportFile\n\nAPC JOB IDENTIFICATION\n\n CARMSYS...............: /carm/master/Products/standard_gpc/CARMSYS\n CARMUSR...............: /users/nightjob/texttesttmp/apc.master.sparc_64.boostnightjob13Dec235444/RD_nw_pac/96vd10prod-small_new_syntax/RD_nw_pac_v11_user\n CARMTMP...............: /carm/master/Products/standard_gpc/CARMSYS/RD_nw_pac_v11_tmp.apc\n APC library version...: master.current\n APC library date......: 12 December 2005 22:00:36\n\nError! Pid:28805  Wed Dec 14 05:27:46 2005  User:nightjob\nError! File:/carm/master/Rules_and_Reports/utils/crc_etab_open.cc  Line:106\nError! crcuRegisterTableProtocol: Obsolete function\n\n------------------ New result in errors --------------------\nCpu Limit Exceeded - core dumped\n------------------ New result in output --------------------\nSUBPLAN /users/nightjob/texttesttmp/apc.master.sparc_64.boostnightjob13Dec235444/RD_nw_pac/96vd10prod-small_new_syntax/RD_nw_pac_v11_user/LOCAL_PLAN/200412/pl-747/monthly1/96vd10prod-small/APC_FILES\nCARMSYS /carm/master/Products/standard_gpc/CARMSYS\nUsing default settings\n\n\nWARNING\nWhen running at Carmen using \nCARMUSR setting /users/nightjob/texttesttmp/apc.master.sparc_64.boostnightjob13Dec235444/RD_nw_pac/96vd10prod-small_new_syntax/RD_nw_pac_v11_user\nyou probably need to have a file called\n/users/nightjob/.PERSONAL_CONFIG_extension file.\nYOU DON NOT HAVE THIS FILE.\nPlease look in the file\n/users/nightjob/texttesttmp/apc.master.sparc_64.boostnightjob13Dec235444/RD_nw_pac/96vd10prod-small_new_syntax/RD_nw_pac_v11_user/CONFIG_extension.\nIf you decide to create the file you must restart GPC afterwards.\nPYTHONHOME=/usr/local/sparcv9\nPATH=/usr/local/sparcv9/bin:/users/nightjob/texttesttmp/apc.master.sparc_64.boostnightjob13Dec235444/RD_nw_pac/96vd10prod-small_new_syntax/RD_nw_pac_v11_user/bin/sparc_64:/users/nightjob/texttesttmp/apc.master.sparc_64.boostnightjob13Dec235444/RD_nw_pac/96vd10prod-small_new_syntax/RD_nw_pac_v11_user/bin:/carm/master/Products/standard_gpc/CARMSYS/bin/sparc_64:/carm/master/Products/standard_gpc/CARMSYS/bin:/carm/master/Products/standard_gpc/CARMSYS/etc/sparc_64:/carm/master/Products/standard_gpc/C\nARMSYS/etc:/usr/xpg4/bin:/usr/local/bin/carmen/master:/usr/vacpp/bin:/opt/aCC/bin:/opt/SUNWspro_9/bin:/users/nightjob/texttesttmp/apc.master.sparc_64.boostnightjob13Dec235444/RD_nw_pac/96vd10prod-small_new_syntax:/usr/local/ODI/OS5.1/bin:/usr/local/share/sge/bin/sol-sparc64:/usr/local/lsf5/5.1/sparc-sol7-64/bin:/usr/local/lsf5/5.1/sparc-sol7-64/etc:/opt/SUNWspro_11/bin:/users/nightjob:/users/nightjob/bin:/usr/local/bin:/opt/gnu/bin:/usr/sfw/bin:/opt/sfw/bin:/usr/openwin/bin:/opt/SUNWmfwm/bin:/us\nr/bin:/bin:/usr/ccs/bin:/usr/ucb:/usr/local/etc:/usr/sbin:/usr/dt/bin:.:/usr/local/ODI/OSDBC2.0/bin:/opt/Oracle/u1/app/oracle/product/8.1.5/bin:/carm/rational/releases/PurifyPlus.2003a.06.13.FixPack.0177/sun4_solaris2/bin:/carm/proj/3pp/ddts/sol2x_bin\n'
sS'started'
p7
I1
sS'diag'
p8
(ilog4py
Logger
(dp9
S'_Logger__Logger_functionname'
p10
S''
sS'_Logger__Logger_module'
p11
S''
sS'_Logger__Logger_linenumber'
p12
I-1
sS'_Logger__Logger_classname'
p13
S'testcomparison'
p14
sS'_Logger__Logger_targets'
p15
(lp16
S'sys.stdout'
asS'_Logger__Logger_formatstring'
p17
S'%T %L %C [%F] %x%M'
sS'_Logger__Logger_filename'
p18
S''
sS'_Logger__Logger_classid'
p19
NsS'_Logger__Logger_timelaststep'
p20
F1134534460.9806941
sS'_Logger__Logger_configfilename'
p21
S''
sS'_Logger__Logger_ndc'
p22
(lsS'_Logger__Logger_useansicodes'
p23
S'FALSE'
p24
sS'_Logger__Logger_timeinit'
p25
F1134534460.9806941
sS'_Logger__Logger_loglevel'
p26
I1
sS'_Logger__Logger_timeformat'
p27
S'%m/%d/%y %H:%M:%S'
sS'_Logger__Logger_rotation'
p28
I0
sbsS'costName'
p29
S'TOTAL cost'
sS'briefText'
p30
S'CPULIMIT'
p31
sS'executionHosts'
p32
(lp33
S'turin'
p34
asS'logStem'
p35
S'status'
p36
sS'appAbsPath'
p37
S'/carm/master/Testing/Automatic/picador'
sS'allResults'
p38
(lp39
(icomparetest
FileComparison
p40
(dp41
S'stdFile'
p42
S'/carm/master/Testing/Automatic/picador/RD_nw_pac/96vd10prod-small_new_syntax/all.apc'
p43
sS'severity'
p44
I99
sS'differenceId'
p45
I0
sS'tmpFile'
p46
S'/users/nightjob/texttesttmp/apc.master.sparc_64.boostnightjob13Dec235444/RD_nw_pac/96vd10prod-small_new_syntax/all.apc'
p47
sS'stdCmpFile'
p48
g43
sS'stem'
p49
S'all'
p50
sS'tmpCmpFile'
p51
g47
sba(icomparetest
FileComparison
p52
(dp53
g42
S'/carm/master/Testing/Automatic/picador/RD_nw_pac/96vd10prod-small_new_syntax/errors.apc'
p54
sg44
I1
sg45
I0
sg46
S'/users/nightjob/texttesttmp/apc.master.sparc_64.boostnightjob13Dec235444/RD_nw_pac/96vd10prod-small_new_syntax/errors.apc'
p55
sg48
g54
sg49
S'errors'
p56
sg51
g55
sba(icomparetest
FileComparison
p57
(dp58
g42
S'/carm/master/Testing/Automatic/picador/RD_nw_pac/96vd10prod-small_new_syntax/output.apc'
p59
sg44
I1
sg45
I0
sg46
S'/users/nightjob/texttesttmp/apc.master.sparc_64.boostnightjob13Dec235444/RD_nw_pac/96vd10prod-small_new_syntax/output.apc'
p60
sg48
g59
sg49
S'output'
p61
sg51
g60
sbasS'appWriteDir'
p62
S'/users/nightjob/texttesttmp/apc.master.sparc_64.boostnightjob13Dec235444'
sS'correctResults'
p63
(lsS'lifecycleChange'
p64
S''
sS'failedPrediction'
p65
(iplugins
TestState
(dp66
g3
g4
sg6
S'Test exceeded maximum cpu time allowed\n'
sg7
I1
sS'completed'
p67
I0
sg64
S''
sg30
g31
sg32
g33
sbsg67
I1
sS'newResults'
p68
(lp69
g40
ag52
ag57
asb.