(ioptimization
OptimizationTestComparison
p0
(dp2
S'category'
p3
S'killed'
p4
sS'changedResults'
p5
(lp6
sS'missingResults'
p7
(lp8
sS'freeText'
p9
S'Test exceeded maximum cpu time allowed\n------------------ New result in all --------------------\nPO-file Standard.po loaded successfully\nTime:  0 s real  140 ms cpu  0 ms cpu_child  memory:  28.0 Mb\nDelta: 0 s real  0 ms cpu  0 ms cpu_child  memory:  28.0 Mb\n/carm/master/Products/standard_gpc/CARMSYS/RD_nw_pac_v11_tmp.apc/crc/rule_set/APC/sparc_64/.Pilot_tuned_new_syntax.nightjob.28660\n-E\n-s /users/nightjob/texttesttmp/apc.master.sparc_64.boostnightjob13Dec235444/RD_nw_pac/96vd10prod-small_new_syntax/RD_nw_pac_v11_user/LOCAL_PLAN/200412/pl-747/monthly1/96vd10prod-small/APC_FILES\n-v 1\n-R /opt/apc_temp/96vd10prod-small_28660/APC_rot\n-I /users/nightjob/texttesttmp/apc.master.sparc_64.boostnightjob13Dec235444/RD_nw_pac/96vd10prod-small_new_syntax/RD_nw_pac_v11_user/LOCAL_PLAN/200412/pl-747/monthly1/96vd10prod-small/APC_FILES/run_status\n-U nightjob\nexecutable name is [/carm/master/Products/standard_gpc/CARMSYS/RD_nw_pac_v11_tmp.apc/crc/rule_set/APC/sparc_64/.Pilot_tuned_new_syntax.nightjob.28660]\ncarmsys: /carm/master/Products/standard_gpc/CARMSYS\ncarmusr: /users/nightjob/texttesttmp/apc.master.sparc_64.boostnightjob13Dec235444/RD_nw_pac/96vd10prod-small_new_syntax/RD_nw_pac_v11_user\ncarmtmp: /carm/master/Products/standard_gpc/CARMSYS/RD_nw_pac_v11_tmp.apc\nlp_etab_dir:  /carm/proj/apc/carmen_11/RD_nw_pac_v11_user/LOCAL_PLAN/200412/pl-747/monthly1/etable\nsp_etab_dir:  /carm/proj/apc/carmen_11/RD_nw_pac_v11_user/LOCAL_PLAN/200412/pl-747/monthly1/96vd10prod-small/etable\nairport file: /users/nightjob/texttesttmp/apc.master.sparc_64.boostnightjob13Dec235444/RD_nw_pac/96vd10prod-small_new_syntax/RD_nw_pac_v11_user/data/Airport/bin/NWA_AirportFile\n\nAPC JOB IDENTIFICATION\n\n CARMSYS...............: /carm/master/Products/standard_gpc/CARMSYS\n CARMUSR...............: /users/nightjob/texttesttmp/apc.master.sparc_64.boostnightjob13Dec235444/RD_nw_pac/96vd10prod-small_new_syntax/RD_nw_pac_v11_user\n CARMTMP...............: /carm/master/Products/standard_gpc/CARMSYS/RD_nw_pac_v11_tmp.apc\n APC library version...: master.current\n APC library date......: 12 December 2005 22:00:36\n\nError! Pid:28805  Wed Dec 14 05:27:46 2005  User:nightjob\nError! File:/carm/master/Rules_and_Reports/utils/crc_etab_open.cc  Line:106\nError! crcuRegisterTableProtocol: Obsolete function\n\n------------------ New result in errors --------------------\nCpu Limit Exceeded - core dumped\n------------------ New result in output --------------------\nSUBPLAN /users/nightjob/texttesttmp/apc.master.sparc_64.boostnightjob13Dec235444/RD_nw_pac/96vd10prod-small_new_syntax/RD_nw_pac_v11_user/LOCAL_PLAN/200412/pl-747/monthly1/96vd10prod-small/APC_FILES\nCARMSYS /carm/master/Products/standard_gpc/CARMSYS\nUsing default settings\n\n\nWARNING\nWhen running at Carmen using \nCARMUSR setting /users/nightjob/texttesttmp/apc.master.sparc_64.boostnightjob13Dec235444/RD_nw_pac/96vd10prod-small_new_syntax/RD_nw_pac_v11_user\nyou probably need to have a file called\n/users/nightjob/.PERSONAL_CONFIG_extension file.\nYOU DON NOT HAVE THIS FILE.\nPlease look in the file\n/users/nightjob/texttesttmp/apc.master.sparc_64.boostnightjob13Dec235444/RD_nw_pac/96vd10prod-small_new_syntax/RD_nw_pac_v11_user/CONFIG_extension.\nIf you decide to create the file you must restart GPC afterwards.\nPYTHONHOME=/usr/local/sparcv9\nPATH=/usr/local/sparcv9/bin:/users/nightjob/texttesttmp/apc.master.sparc_64.boostnightjob13Dec235444/RD_nw_pac/96vd10prod-small_new_syntax/RD_nw_pac_v11_user/bin/sparc_64:/users/nightjob/texttesttmp/apc.master.sparc_64.boostnightjob13Dec235444/RD_nw_pac/96vd10prod-small_new_syntax/RD_nw_pac_v11_user/bin:/carm/master/Products/standard_gpc/CARMSYS/bin/sparc_64:/carm/master/Products/standard_gpc/CARMSYS/bin:/carm/master/Products/standard_gpc/CARMSYS/etc/sparc_64:/carm/master/Products/standard_gpc/C\nARMSYS/etc:/usr/xpg4/bin:/usr/local/bin/carmen/master:/usr/vacpp/bin:/opt/aCC/bin:/opt/SUNWspro_9/bin:/users/nightjob/texttesttmp/apc.master.sparc_64.boostnightjob13Dec235444/RD_nw_pac/96vd10prod-small_new_syntax:/usr/local/ODI/OS5.1/bin:/usr/local/share/sge/bin/sol-sparc64:/usr/local/lsf5/5.1/sparc-sol7-64/bin:/usr/local/lsf5/5.1/sparc-sol7-64/etc:/opt/SUNWspro_11/bin:/users/nightjob:/users/nightjob/bin:/usr/local/bin:/opt/gnu/bin:/usr/sfw/bin:/opt/sfw/bin:/usr/openwin/bin:/opt/SUNWmfwm/bin:/us\nr/bin:/bin:/usr/ccs/bin:/usr/ucb:/usr/local/etc:/usr/sbin:/usr/dt/bin:.:/usr/local/ODI/OSDBC2.0/bin:/opt/Oracle/u1/app/oracle/product/8.1.5/bin:/carm/rational/releases/PurifyPlus.2003a.06.13.FixPack.0177/sun4_solaris2/bin:/carm/proj/3pp/ddts/sol2x_bin\n'
p10
sS'started'
p11
I1
sS'appWriteDir'
p12
S'/users/nightjob/texttesttmp/apc.master.sparc_64.boostnightjob13Dec235444'
p13
sS'costName'
p14
S'TOTAL cost'
p15
sS'briefText'
p16
S'CPULIMIT'
p17
sS'executionHosts'
p18
(lp19
S'turin'
p20
asS'logStem'
p21
S'status'
p22
sS'appAbsPath'
p23
S'/carm/master/Testing/Automatic/picador'
p24
sS'allResults'
p25
(lp26
(icomparefile
FileComparison
p27
(dp28
S'stdFile'
p29
S'/carm/master/Testing/Automatic/picador/RD_nw_pac/96vd10prod-small_new_syntax/all.apc'
p30
sS'severity'
p31
I99
sS'differenceId'
p32
I0
sS'differenceCache'
p33
I0
sS'tmpFile'
p34
S'/users/nightjob/texttesttmp/apc.master.sparc_64.boostnightjob13Dec235444/RD_nw_pac/96vd10prod-small_new_syntax/all.apc'
p35
sS'stdCmpFile'
p36
g30
sS'tmpCmpFile'
p37
g35
sS'stem'
p38
S'all'
p39
sba(icomparefile
FileComparison
p40
(dp41
g29
S'/carm/master/Testing/Automatic/picador/RD_nw_pac/96vd10prod-small_new_syntax/errors.apc'
p42
sg31
I1
sg32
I0
sg33
I0
sg34
S'/users/nightjob/texttesttmp/apc.master.sparc_64.boostnightjob13Dec235444/RD_nw_pac/96vd10prod-small_new_syntax/errors.apc'
p43
sg36
g42
sg37
g43
sg38
S'errors'
p44
sba(icomparefile
FileComparison
p45
(dp46
g29
S'/carm/master/Testing/Automatic/picador/RD_nw_pac/96vd10prod-small_new_syntax/output.apc'
p47
sg31
I1
sg32
I0
sg33
I0
sg34
S'/users/nightjob/texttesttmp/apc.master.sparc_64.boostnightjob13Dec235444/RD_nw_pac/96vd10prod-small_new_syntax/output.apc'
p48
sg36
g47
sg37
g48
sg38
S'output'
p49
sbasS'correctResults'
p50
(lp51
sS'lifecycleChange'
p52
S''
p53
sS'failedPrediction'
p54
(iplugins
TestState
p55
(dp56
g3
g4
sg9
S'Test exceeded maximum cpu time allowed\n'
p57
sg11
I1
sS'completed'
p58
I0
sg52
g53
sg16
g17
sg18
g19
sbsg58
I1
sS'newResults'
p59
(lp60
g27
ag40
ag45
asb.