(iravebased
RuleBuildFailed
p1
(dp2
S'category'
p3
S'unrunnable'
p4
sS'freeText'
p5
S'Ruleset compilation exceeded maximum cpu time allowed'
sS'started'
p6
I0
sS'completed'
p7
I1
sS'lifecycleChange'
p8
S''
sS'briefText'
p9
S'Ruleset build CPULIMIT'
sS'executionHosts'
p10
(lsb.