(iplugins
Unrunnable
p0
(dp1
S'category'
p2
S'unrunnable'
p3
sS'freeText'
p4
S'Ruleset compilation exceeded maximum cpu time allowed'
p5
sS'started'
p6
I0
sS'completed'
p7
I1
sS'lifecycleChange'
p8
S''
p9
sS'briefText'
p10
S'Ruleset build CPULIMIT'
p11
sS'executionHosts'
p12
(lp13
sb.