(iplugins
Unrunnable
p0
(dp1
S'category'
p2
S'unrunnable'
p3
sS'freeText'
p4
S'Failed to build ruleset DB_RT_ZUB\nPYTHONHOME=/usr/local/sparcv9\nPATH=/usr/local/sparcv9/bin:/carm/proj/apc/carmen_11/RD_db_pac_v11_user/bin/sparc_64:/carm/proj/apc/carmen_11/RD_db_pac_v11_user/bin:/carm/master/Products/standard_gpc/CARMSYS/bin/sparc_64:/carm/master/Products/standard_gpc/CARMSYS/bin:/carm/master/Products/standard_gpc/CARMSYS/etc/sparc_64:/carm/master/Products/standard_gpc/CARMSYS/etc:/usr/xpg4/bin:/usr/local/bin/carmen/master:/usr/vacpp/bin:/opt/aCC/bin:/opt/SUNWspro_9/bin:/opt/Oracle/u1/app/oracle/product/S8.1.7_32/bin:/users/nightjob/textte\nsttmp/apc.master.sparc_64nightjob07Dec021915/RD_db_pac_v11/DTC_tiny:/usr/local/ODI/OS5.1/bin:/usr/local/share/sge/bin/sol-sparc64:/usr/local/lsf5/5.1/sparc-sol7-64/bin:/usr/local/lsf5/5.1/sparc-sol7-64/etc:/opt/SUNWspro_11/bin:/users/nightjob:/users/nightjob/bin:/usr/local/bin:/opt/gnu/bin:/usr/sfw/bin:/opt/sfw/bin:/usr/openwin/bin:/opt/SUNWmfwm/bin:/usr/bin:/bin:/usr/ccs/bin:/usr/ucb:/usr/local/etc:/usr/sbin:/usr/dt/bin:.:/usr/local/ODI/OSDBC2.0/bin:/opt/Oracle/u1/app/oracle/product/8.1.5/bin:/\ncarm/rational/releases/PurifyPlus.2003a.06.13.FixPack.0177/sun4_solaris2/bin:/carm/proj/3pp/ddts/sol2x_bin\nBuild Rave program DB_RT_ZUB started on turin, 07 December 02:19\nGenerating code... \n*** Trouble report (0 errors, 40 warnings):\n\n"modules/leg_pac", line 909.20:\n     907:     else\n     908:         default( min(ac_rotations_ref, %_train_stand_time_before_z...\n     909:             where (%rule_based_is_wagon_or_is_locomotive%),  0:00)...\n                             ^^^^^^^^^^^^^^^^^^^^^^^^^^^^^^^^^^^^^^\n WARNING: Constant where makes no sense\n\n"modules/leg_pac", line 1230.15:\n    1228:   then rot_pp.%is_doppelstockzug%\n... extra data truncated by TextTest ...\nar: /carm/master/Products/standard_gpc/CARMSYS/RD_db_pac_v11_tmp.apc.sparc_64/compile/APC/sparc_64_opt/DB_RT_ZUBOBJTMP/d1d746791595a73bf61850b42df5a3a2.o not found\nar: /carm/master/Products/standard_gpc/CARMSYS/RD_db_pac_v11_tmp.apc.sparc_64/compile/APC/sparc_64_opt/DB_RT_ZUBOBJTMP/d2ba69e79ab5a2035c97996cc4c85a1b.o not found\nar: /carm/master/Products/standard_gpc/CARMSYS/RD_db_pac_v11_tmp.apc.sparc_64/compile/APC/sparc_64_opt/DB_RT_ZUBOBJTMP/d396ce2f1c4256b88aed69112c2c25fd.o not found\nar: /carm/master/Products/standard_gpc/CARMSYS/RD_db_pac_v11_tmp.apc.sparc_64/compile/APC/sparc_64_opt/DB_RT_ZUBOBJTMP/e4fd9d49d9043cff099f3270cf509af4.o not found\nar: /carm/master/Products/standard_gpc/CARMSYS/RD_db_pac_v11_tmp.apc.sparc_64/compile/APC/sparc_64_opt/DB_RT_ZUBOBJTMP/eada67ca4fd3d832654956559c859f59.o not found\nar: /carm/master/Products/standard_gpc/CARMSYS/RD_db_pac_v11_tmp.apc.sparc_64/compile/APC/sparc_64_opt/DB_RT_ZUBOBJTMP/ec8a5431896d1fcaa6964dad351ebc81.o not found\nar: /carm/master/Products/standard_gpc/CARMSYS/RD_db_pac_v11_tmp.apc.sparc_64/compile/APC/sparc_64_opt/DB_RT_ZUBOBJTMP/f0d711558bb9af17336ad2e05487456f.o not found\nar: /carm/master/Products/standard_gpc/CARMSYS/RD_db_pac_v11_tmp.apc.sparc_64/compile/APC/sparc_64_opt/DB_RT_ZUBOBJTMP/f51e7bbbd1344b57fa68fbb89c40ccc9.o not found\nar: /carm/master/Products/standard_gpc/CARMSYS/RD_db_pac_v11_tmp.apc.sparc_64/compile/APC/sparc_64_opt/DB_RT_ZUBOBJTMP/f8c6ab8fd26f4a3678ffa579941f7cb0.o not found\nar: /carm/master/Products/standard_gpc/CARMSYS/RD_db_pac_v11_tmp.apc.sparc_64/compile/APC/sparc_64_opt/DB_RT_ZUBOBJTMP/f91fa57d0ca0dad87b12204bc85da47b.o not found\nar: /carm/master/Products/standard_gpc/CARMSYS/RD_db_pac_v11_tmp.apc.sparc_64/compile/APC/sparc_64_opt/DB_RT_ZUBOBJTMP/f9a4123be25d59ebff0144c95990b40a.o not found\nar: /carm/master/Products/standard_gpc/CARMSYS/RD_db_pac_v11_tmp.apc.sparc_64/compile/APC/sparc_64_opt/DB_RT_ZUBOBJTMP/fe51c9e8b2a7dcc5be816d45aadbbb0e.o not found\nar: cannot open /carm/master/Products/standard_gpc/CARMSYS/RD_db_pac_v11_tmp.apc.sparc_64/compile/APC/sparc_64_opt/DB_RT_ZUBOBJTMP/4e9db2a5a2c710ab339368de5c942c88.o\n\tNo such file or directory\nar: /carm/master/Products/standard_gpc/CARMSYS/RD_db_pac_v11_tmp.apc.sparc_64/compile/APC/sparc_64_opt/DB_RT_ZUBOBJTMP/4e9db2a5a2c710ab339368de5c942c88.o not found\n'
p5
sS'started'
p6
I0
sS'completed'
p7
I1
sS'lifecycleChange'
p8
S''
p9
sS'briefText'
p10
S'Ruleset build failed'
p11
sS'executionHosts'
p12
(lp13
sb.