(iplugins
Unrunnable
p0
(dp1
S'category'
p2
S'unrunnable'
p3
sS'freeText'
p4
S'Failed to build ruleset DB_RT_ZUB\nPYTHONHOME=/usr/local/sparcv9\nPATH=/usr/local/sparcv9/bin:/carm/proj/apc/carmen_11/RD_db_pac_v11_user/bin/sparc_64:/carm/proj/apc/carmen_11/RD_db_pac_v11_user/bin:/carm/master/Products/standard_gpc/CARMSYS/bin/sparc_64:/carm/master/Products/standard_gpc/CARMSYS/bin:/carm/master/Products/standard_gpc/CARMSYS/etc/sparc_64:/carm/master/Products/standard_gpc/CARMSYS/etc:/usr/xpg4/bin:/usr/local/bin/carmen/master:/usr/vacpp/bin:/opt/aCC/bin:/opt/SUNWspro_9/bin:/opt/Oracle/u1/app/oracle/product/S8.1.7_32/bin:/users/nightjob/textte\nsttmp/apc.master.sparc_64nightjob14Dec231405/RD_db_pac_v11/DTC_tiny:/usr/local/ODI/OS5.1/bin:/usr/local/share/sge/bin/sol-sparc64:/usr/local/lsf5/5.1/sparc-sol7-64/bin:/usr/local/lsf5/5.1/sparc-sol7-64/etc:/opt/SUNWspro_11/bin:/users/nightjob:/users/nightjob/bin:/usr/local/bin:/opt/gnu/bin:/usr/sfw/bin:/opt/sfw/bin:/usr/openwin/bin:/opt/SUNWmfwm/bin:/usr/bin:/bin:/usr/ccs/bin:/usr/ucb:/usr/local/etc:/usr/sbin:/usr/dt/bin:.:/usr/local/ODI/OSDBC2.0/bin:/opt/Oracle/u1/app/oracle/product/8.1.5/bin:/\ncarm/rational/releases/PurifyPlus.2003a.06.13.FixPack.0177/sun4_solaris2/bin:/carm/proj/3pp/ddts/sol2x_bin\nBuild Rave program DB_RT_ZUB started on turin, 14 December 23:14\nGenerating code... \n*** Trouble report (0 errors, 40 warnings):\n\n"modules/leg_pac", line 909.20:\n     907:     else\n     908:         default( min(ac_rotations_ref, %_train_stand_time_before_z...\n     909:             where (%rule_based_is_wagon_or_is_locomotive%),  0:00)...\n                             ^^^^^^^^^^^^^^^^^^^^^^^^^^^^^^^^^^^^^^\n WARNING: Constant where makes no sense\n\n"modules/leg_pac", line 1230.15:\n    1228:   then rot_pp.%is_doppelstockzug%\n... extra data truncated by TextTest ...\nar: /carm/master/Products/standard_gpc/CARMSYS/RD_db_pac_v11_tmp.apc.sparc_64/compile/APC/sparc_64_opt/DB_RT_ZUBOBJTMP/c2912612e108a33fe7c263d9ac90110d.o not found\nar: /carm/master/Products/standard_gpc/CARMSYS/RD_db_pac_v11_tmp.apc.sparc_64/compile/APC/sparc_64_opt/DB_RT_ZUBOBJTMP/c381cc312adf87b9cf2100b8eb071966.o not found\nar: /carm/master/Products/standard_gpc/CARMSYS/RD_db_pac_v11_tmp.apc.sparc_64/compile/APC/sparc_64_opt/DB_RT_ZUBOBJTMP/cb4028df2663653571b7826df8290497.o not found\nar: /carm/master/Products/standard_gpc/CARMSYS/RD_db_pac_v11_tmp.apc.sparc_64/compile/APC/sparc_64_opt/DB_RT_ZUBOBJTMP/cf5c0889387e32fa5ada05348251a425.o not found\nar: /carm/master/Products/standard_gpc/CARMSYS/RD_db_pac_v11_tmp.apc.sparc_64/compile/APC/sparc_64_opt/DB_RT_ZUBOBJTMP/d36accad8fe901f0ee3b26fce0806ed4.o not found\nar: /carm/master/Products/standard_gpc/CARMSYS/RD_db_pac_v11_tmp.apc.sparc_64/compile/APC/sparc_64_opt/DB_RT_ZUBOBJTMP/d870de6a159dd089447dd87414924633.o not found\nar: /carm/master/Products/standard_gpc/CARMSYS/RD_db_pac_v11_tmp.apc.sparc_64/compile/APC/sparc_64_opt/DB_RT_ZUBOBJTMP/dce8f6c9fc1bdf27953b7a2a69c4480f.o not found\nar: /carm/master/Products/standard_gpc/CARMSYS/RD_db_pac_v11_tmp.apc.sparc_64/compile/APC/sparc_64_opt/DB_RT_ZUBOBJTMP/ddc96e9ffe4e70e4203252472da6a089.o not found\nar: /carm/master/Products/standard_gpc/CARMSYS/RD_db_pac_v11_tmp.apc.sparc_64/compile/APC/sparc_64_opt/DB_RT_ZUBOBJTMP/e11317e7ab65c1965daf76c06546bf67.o not found\nar: /carm/master/Products/standard_gpc/CARMSYS/RD_db_pac_v11_tmp.apc.sparc_64/compile/APC/sparc_64_opt/DB_RT_ZUBOBJTMP/e8a4952c3f4cd6f54aa6cc7f447da738.o not found\nar: /carm/master/Products/standard_gpc/CARMSYS/RD_db_pac_v11_tmp.apc.sparc_64/compile/APC/sparc_64_opt/DB_RT_ZUBOBJTMP/eeee2402f9f068da28d5dfa1057e0845.o not found\nar: /carm/master/Products/standard_gpc/CARMSYS/RD_db_pac_v11_tmp.apc.sparc_64/compile/APC/sparc_64_opt/DB_RT_ZUBOBJTMP/f06ad01c6c1d8bc00efc7555a1caf1c9.o not found\nar: /carm/master/Products/standard_gpc/CARMSYS/RD_db_pac_v11_tmp.apc.sparc_64/compile/APC/sparc_64_opt/DB_RT_ZUBOBJTMP/f2a3dd6a9657122ef5e1412d5522f581.o not found\nar: /carm/master/Products/standard_gpc/CARMSYS/RD_db_pac_v11_tmp.apc.sparc_64/compile/APC/sparc_64_opt/DB_RT_ZUBOBJTMP/f7db145cf5c44a07867ba58ec617b7c0.o not found\nar: /carm/master/Products/standard_gpc/CARMSYS/RD_db_pac_v11_tmp.apc.sparc_64/compile/APC/sparc_64_opt/DB_RT_ZUBOBJTMP/fc36ef6959989418317e3be13f7de790.o not found\n'
p5
sS'started'
p6
I0
sS'completed'
p7
I1
sS'lifecycleChange'
p8
S''
p9
sS'briefText'
p10
S'Ruleset build failed'
p11
sS'executionHosts'
p12
(lp13
sb.