(iravebased
RuleBuildFailed
p1
(dp2
S'category'
p3
S'unrunnable'
p4
sS'freeText'
p5
S'Failed to build ruleset umlauf_spiel\nPYTHONHOME=/usr/local/sparcv9\nPATH=/usr/local/sparcv9/bin:/carm/user_and_tmp/carmen_10/users_for_RD/UsersPicador/Spiel_user/bin/sparc_64:/carm/user_and_tmp/carmen_10/users_for_RD/UsersPicador/Spiel_user/bin:/carm/proj/matador2/publish/master/Products/standard_gpc/CARMSYS/bin/sparc_64:/carm/proj/matador2/publish/master/Products/standard_gpc/CARMSYS/bin:/carm/proj/matador2/publish/master/Products/standard_gpc/CARMSYS/etc/sparc_64:/carm/proj/matador2/publish/master/Products/standard_gpc/CARMSYS/etc:/usr/xpg4/bin:/usr/local/bin/\ncarmen/master:/usr/vacpp/bin:/opt/aCC/bin:/opt/SUNWspro_9/bin:/users/hamid/texttesttmp/apc.master.sparc_64hamid15Dec220230/Spielscripts/umlauf_spiel:/usr/local/ODI/OS5.1/bin:/usr/local/share/sge/bin/sol-sparc64:/opt/SUNWspro_11/bin:/users/hamid:/users/hamid/bin:/usr/local/bin:/opt/gnu/bin:/usr/sfw/bin:/opt/sfw/bin:/usr/openwin/bin:/opt/SUNWmfwm/bin:/usr/bin:/bin:/usr/ccs/bin:/usr/ucb:/usr/local/etc:/usr/sbin:/usr/dt/bin:.:/opt/Framemaker_6/webworks/bin:/usr/local/ODI/OSDBC2.0/bin:/opt/Oracle/u1/\napp/oracle/product/8.1.5/bin:/carm/rational/releases/PurifyPlus.2003a.06.13.FixPack.0177/sun4_solaris2/bin:/carm/proj/3pp/ddts/sol2x_bin:/users/rastjo/Soft/fvwm2/sparc_64/bin:/users/rastjo/Soft/fvwm2/sparc_64/bin\nBuild Rave program umlauf_spiel started on sundance, 15 December 22:02\nGenerating code... done.\nBuilding for apc on localhost - 3 files out of 3 need to be compiled\nCompiling... ld: elf error: file /carm/proj/matador2/publish/master/Products/standard_gpc/CARMSYS/data/apc/sparc_64/libapc.a: elf_begin: Format error: archive member truncated\nld: fatal: library -lapc: not found\nld: fatal: File processing errors. No output written to /carm/proj/matador2/publish/master/Products/standard_gpc/CARMSYS/Spielscripts_tmp.apc.sparc_64/compile/APC/sparc_64_opt/umlauf_spiel\n'
sS'started'
p6
I0
sS'completed'
p7
I1
sS'lifecycleChange'
p8
S''
sS'briefText'
p9
S'Ruleset build failed'
sS'executionHosts'
p10
(lsb.