(icomparetest
TestComparison
p1
(dp2
S'changedResults'
p3
(lp4
sS'started'
p5
I1
sS'completed'
p6
I1
sS'executionHosts'
p7
(lp8
S'abbeville'
p9
asS'lifecycleChange'
p10
S''
sS'category'
p11
S'badPredict'
p12
sS'missingResults'
p13
(lp14
sS'freeText'
p15
S'Each turn, at least somebody must move to Spain'
p16
sS'diag'
p17
(ilog4py
Logger
p18
(dp19
S'_Logger__Logger_functionname'
p20
S''
sS'_Logger__Logger_module'
p21
S''
sS'_Logger__Logger_linenumber'
p22
I-1
sS'_Logger__Logger_loglevel'
p23
I1
sS'_Logger__Logger_filename'
p24
S''
sS'_Logger__Logger_ndc'
p25
(lp26
sS'_Logger__Logger_classname'
p27
S'testcomparison'
p28
sS'_Logger__Logger_targets'
p29
(lp30
S'sys.stdout'
p31
asS'_Logger__Logger_formatstring'
p32
S'%T %L %C [%F] %x%M'
p33
sS'_Logger__Logger_configfilename'
p34
S''
sS'_Logger__Logger_classid'
p35
NsS'_Logger__Logger_timelaststep'
p36
F1159277018.7775841
sS'_Logger__Logger_useansicodes'
p37
S'FALSE'
p38
sS'_Logger__Logger_timeinit'
p39
F1159277018.7775841
sS'_Logger__Logger_timeformat'
p40
S'%m/%d/%y %H:%M:%S'
p41
sS'_Logger__Logger_rotation'
p42
I0
sbsS'briefText'
p43
S'Must move to Spain'
p44
sS'failedPrediction'
p45
(iknownbugs
FailedPrediction
p46
(dp47
g11
g12
sg15
g16
sg5
I0
sg6
I1
sg43
g44
sg7
(lp48
sg10
S''
sbsS'appAbsPath'
p49
S'/users/geoff/work/master/Testing/Automatic/texttest/TargetApp'
p50
sS'allResults'
p51
(lp52
(icomparefile
FileComparison
p53
(dp54
S'stdFile'
p55
S'/users/geoff/work/master/Testing/Automatic/texttest/TargetApp/Game9952/A05/output.dip'
p56
sS'severity'
p57
I1
sg17
(ilog4py
Logger
p58
(dp59
g20
S''
sg21
S''
sg22
I-1
sg23
I1
sg24
S''
sg25
(lp60
sg27
S'filecomparison'
p61
sg29
(lp62
g31
asg32
g33
sg34
S''
sg35
Nsg36
F1159277018.7775841
sg37
g38
sg39
F1159277018.7775841
sg40
g41
sg42
I0
sbsS'differenceCache'
p63
I00
sS'tmpFile'
p64
S'/users/geoff/texttesttmp/dip.batchgeoff26Sep152338/Game9952/A05/output.dip'
p65
sS'stdCmpFile'
p66
S'/users/geoff/texttesttmp/dip.batchgeoff26Sep152338/Game9952/A05/framework_tmp/output.diporigcmp'
p67
sS'stem'
p68
S'output'
p69
sS'textDiffToolMaxSize'
p70
F-1
sS'previewGenerator'
p71
(iplugins
PreviewGenerator
p72
(dp73
S'cutFromStart'
p74
I30
sS'cutFromEnd'
p75
I0
sS'maxWidth'
p76
I500
sbsS'tmpCmpFile'
p77
S'/users/geoff/texttesttmp/dip.batchgeoff26Sep152338/Game9952/A05/framework_tmp/output.dipcmp'
p78
sS'displayPriority'
p79
I99
sS'textDiffTool'
p80
S'diff'
p81
sbasS'correctResults'
p82
(lp83
g53
asS'appWriteDir'
p84
S'/users/geoff/texttesttmp/dip.batchgeoff26Sep152338'
p85
sS'newResults'
p86
(lp87
sb.