(iplugins
TestState
p1
(dp2
S'category'
p3
S'unrunnable'
p4
sS'freeText'
p5
S'SGE/system error\nFull accounting info from SGE follows:\nSGE lost job:2640392'
sS'started'
p6
I0
sS'completed'
p7
I1
sS'lifecycleChange'
p8
S''
sS'briefText'
p9
S'SGE/system error'
sS'executionHosts'
p10
(lp11
sb.