(iplugins
TestState
p1
(dp2
S'category'
p3
S'unrunnable'
p4
sS'freeText'
p5
S"Failed to submit to SGE (error: commlib error: can't connect to service (Connection refused))"
sS'started'
p6
I0
sS'completed'
p7
I1
sS'lifecycleChange'
p8
S''
sS'briefText'
p9
S'UNRUNNABLE'
p10
sS'executionHosts'
p11
(lp12
sb.