(iplugins
TestState
p1
(dp2
S'category'
p3
S'killed'
p4
sS'freeText'
p5
S'Test job was killed (while still pending in SGE) at 08:00'
sS'started'
p6
I0
sS'completed'
p7
I1
sS'lifecycleChange'
p8
S''
sS'briefText'
p9
S'killed pending job at 08:00'
sS'executionHosts'
p10
(lp11
sb.