(ioptimization
OptimizationTestComparison
p0
(dp2
S'category'
p3
S'success'
p4
sS'changedResults'
p5
(lp6
sS'missingResults'
p7
(lp8
sS'freeText'
p9
S''
p10
sS'appAbsPath'
p11
S'/carm/proj/matador2/publish/master/Testing/Automatic/matador'
p12
sS'appWriteDir'
p13
S'/users/marek/texttesttmp/cas.master.i386_linux.parallelmarek03Feb220011'
p14
sS'costName'
p15
S'cost of plan'
p16
sS'briefText'
p17
g10
sS'executionHosts'
p18
(lp19
S'graceville'
p20
ag20
aS'merrillville'
p21
aS'forestville'
p22
asS'logStem'
p23
S'output'
p24
sS'started'
p25
I1
sS'allResults'
p26
(lp27
(icomparefile
FileComparison
p28
(dp29
S'stdFile'
p30
S'/carm/proj/matador2/publish/master/Testing/Automatic/matador/RD_ib_cas_v8scripts/allcrew_buddy_bids/errors.cas'
p31
sS'severity'
p32
I2
sS'differenceId'
p33
I0
sS'differenceCache'
p34
I0
sS'tmpFile'
p35
S'/users/marek/texttesttmp/cas.master.i386_linux.parallelmarek03Feb220011/RD_ib_cas_v8scripts/allcrew_buddy_bids/errors.cas'
p36
sS'stdCmpFile'
p37
S'/users/marek/texttesttmp/cas.master.i386_linux.parallelmarek03Feb220011/RD_ib_cas_v8scripts/allcrew_buddy_bids/framework_tmp/errors.casorigcmp'
p38
sS'tmpCmpFile'
p39
S'/users/marek/texttesttmp/cas.master.i386_linux.parallelmarek03Feb220011/RD_ib_cas_v8scripts/allcrew_buddy_bids/framework_tmp/errors.cascmp'
p40
sS'stem'
p41
S'errors'
p42
sba(icomparefile
FileComparison
p43
(dp44
g30
S'/carm/proj/matador2/publish/master/Testing/Automatic/matador/RD_ib_cas_v8scripts/allcrew_buddy_bids/output.cas'
p45
sg32
I2
sg33
I0
sg34
I0
sg35
S'/users/marek/texttesttmp/cas.master.i386_linux.parallelmarek03Feb220011/RD_ib_cas_v8scripts/allcrew_buddy_bids/output.cas'
p46
sg37
S'/users/marek/texttesttmp/cas.master.i386_linux.parallelmarek03Feb220011/RD_ib_cas_v8scripts/allcrew_buddy_bids/framework_tmp/output.casorigcmp'
p47
sg39
S'/users/marek/texttesttmp/cas.master.i386_linux.parallelmarek03Feb220011/RD_ib_cas_v8scripts/allcrew_buddy_bids/framework_tmp/output.cascmp'
p48
sg41
g24
sba(iperformance
PerformanceFileComparison
p49
(dp50
g30
S'/carm/proj/matador2/publish/master/Testing/Automatic/matador/RD_ib_cas_v8scripts/allcrew_buddy_bids/performance.cas.parallel'
p51
sg33
I0
sS'newPerformance'
p52
F467.60000000000002
sS'oldPerformance'
p53
F475.77999999999997
sg34
I0
sg35
S'/users/marek/texttesttmp/cas.master.i386_linux.parallelmarek03Feb220011/RD_ib_cas_v8scripts/allcrew_buddy_bids/performance.cas.parallel'
p54
sg37
g51
sS'percentageChange'
p55
F1.749358426005122
sg39
g54
sS'descriptors'
p56
(dp57
S'goodperf'
p58
S'faster'
p59
sS'badperf'
p60
S'slower'
p61
sS'config'
p62
S'cputime'
p63
ssS'processCount'
p64
I4
sg41
S'performance'
p65
sS'perfComparison'
p66
(iperformance
PerformanceComparison
p67
(dp68
S'percentageChange'
p69
F1.749358426005122
sS'oldPerformance'
p70
F475.77999999999997
sS'newPerformance'
p71
F467.60000000000002
sS'descriptor'
p72
S'faster'
p73
sbsg32
I3
sba(icomparefile
FileComparison
p74
(dp75
g30
S'/carm/proj/matador2/publish/master/Testing/Automatic/matador/RD_ib_cas_v8scripts/allcrew_buddy_bids/solution.cas'
p76
sg32
I1
sg33
I0
sg34
I0
sg35
S'/users/marek/texttesttmp/cas.master.i386_linux.parallelmarek03Feb220011/RD_ib_cas_v8scripts/allcrew_buddy_bids/solution.cas'
p77
sg37
g76
sg39
g77
sg41
S'solution'
p78
sbasS'correctResults'
p79
(lp80
g28
ag43
ag49
ag74
asS'lifecycleChange'
p81
g10
sS'failedPrediction'
p82
NsS'completed'
p83
I1
sS'newResults'
p84
(lp85
sb.