(icomparetest
TestComparison
p0
(dp2
S'category'
p3
S'success'
p4
sS'changedResults'
p5
(lp6
sS'missingResults'
p7
(lp8
sS'freeText'
p9
S''
p10
sS'started'
p11
I1
sS'appWriteDir'
p12
S'/users/nightjob/texttesttmp/apc.master.parisc_2_0nightjob01Dec214059'
p13
sS'completed'
p14
I1
sS'briefText'
p15
g10
sS'executionHosts'
p16
(lp17
S'haiphong'
p18
asS'appAbsPath'
p19
S'/carm/master/Testing/Automatic/picador'
p20
sS'allResults'
p21
(lp22
(icomparefile
FileComparison
p23
(dp24
S'stdFile'
p25
S'/carm/master/Testing/Automatic/picador/RD_lh_pac/small_A320_COC/error.apc'
p26
sS'severity'
p27
I1
sS'differenceId'
p28
I0
sS'differenceCache'
p29
I0
sS'tmpFile'
p30
S'/users/nightjob/texttesttmp/apc.master.parisc_2_0nightjob01Dec214059/RD_lh_pac/small_A320_COC/error.apc'
p31
sS'stdCmpFile'
p32
g26
sS'tmpCmpFile'
p33
g31
sS'stem'
p34
S'error'
p35
sba(iperformance
PerformanceFileComparison
p36
(dp37
g25
S'/carm/master/Testing/Automatic/picador/RD_lh_pac/small_A320_COC/memory.apc.parisc_2_0'
p38
sg28
I0
sS'newPerformance'
p39
F81.090000000000003
sS'oldPerformance'
p40
F80.900000000000006
sg29
I0
sg30
S'/users/nightjob/texttesttmp/apc.master.parisc_2_0nightjob01Dec214059/RD_lh_pac/small_A320_COC/memory.apc.parisc_2_0'
p41
sg32
g38
sS'processCount'
p42
I1
sg33
g41
sS'descriptors'
p43
(dp44
S'goodperf'
p45
S'smaller'
p46
sS'badperf'
p47
S'larger'
p48
sS'config'
p49
S'memory'
p50
ssS'percentageChange'
p51
F0.23485784919653613
sg34
S'memory'
p52
sS'perfComparison'
p53
(iperformance
PerformanceComparison
p54
(dp55
S'percentageChange'
p56
F0.23485784919653613
sS'oldPerformance'
p57
F80.900000000000006
sS'newPerformance'
p58
F81.090000000000003
sS'descriptor'
p59
S'larger'
p60
sbsg27
I99
sba(icomparefile
FileComparison
p61
(dp62
g25
S'/carm/master/Testing/Automatic/picador/RD_lh_pac/small_A320_COC/solution.apc.parisc_2_0'
p63
sg27
I1
sg28
I0
sg29
I0
sg30
S'/users/nightjob/texttesttmp/apc.master.parisc_2_0nightjob01Dec214059/RD_lh_pac/small_A320_COC/solution.apc.parisc_2_0'
p64
sg32
g63
sg33
g64
sg34
S'solution'
p65
sba(icomparefile
FileComparison
p66
(dp67
g25
S'/carm/master/Testing/Automatic/picador/RD_lh_pac/small_A320_COC/status.apc.parisc_2_0'
p68
sg27
I1
sg28
I0
sg29
I0
sg30
S'/users/nightjob/texttesttmp/apc.master.parisc_2_0nightjob01Dec214059/RD_lh_pac/small_A320_COC/status.apc.parisc_2_0'
p69
sg32
S'/users/nightjob/texttesttmp/apc.master.parisc_2_0nightjob01Dec214059/RD_lh_pac/small_A320_COC/framework_tmp/status.apc.parisc_2_0origcmp'
p70
sg33
S'/users/nightjob/texttesttmp/apc.master.parisc_2_0nightjob01Dec214059/RD_lh_pac/small_A320_COC/framework_tmp/status.apc.parisc_2_0cmp'
p71
sg34
S'status'
p72
sba(icomparefile
FileComparison
p73
(dp74
g25
S'/carm/master/Testing/Automatic/picador/RD_lh_pac/small_A320_COC/warnings.apc'
p75
sg27
I1
sg28
I0
sg29
I0
sg30
S'/users/nightjob/texttesttmp/apc.master.parisc_2_0nightjob01Dec214059/RD_lh_pac/small_A320_COC/warnings.apc'
p76
sg32
S'/users/nightjob/texttesttmp/apc.master.parisc_2_0nightjob01Dec214059/RD_lh_pac/small_A320_COC/framework_tmp/warnings.apcorigcmp'
p77
sg33
S'/users/nightjob/texttesttmp/apc.master.parisc_2_0nightjob01Dec214059/RD_lh_pac/small_A320_COC/framework_tmp/warnings.apccmp'
p78
sg34
S'warnings'
p79
sbasS'correctResults'
p80
(lp81
g23
ag36
ag61
ag66
ag73
asS'lifecycleChange'
p82
g10
sS'failedPrediction'
p83
NsS'newResults'
p84
(lp85
sb.