(ioptimization
OptimizationTestComparison
p0
(dp2
S'category'
p3
S'success'
p4
sS'changedResults'
p5
(lp6
sS'missingResults'
p7
(lp8
sS'freeText'
p9
S''
p10
sS'started'
p11
I1
sS'appWriteDir'
p12
S'/users/nightjob/texttesttmp/apc.master.parisc_2_0.boostnightjob14Dec214040'
p13
sS'costName'
p14
S'TOTAL cost'
p15
sS'briefText'
p16
g10
sS'executionHosts'
p17
(lp18
S'canberra'
p19
asS'logStem'
p20
S'status'
p21
sS'appAbsPath'
p22
S'/carm/master/Testing/Automatic/picador'
p23
sS'allResults'
p24
(lp25
(iperformance
PerformanceFileComparison
p26
(dp27
S'stdFile'
p28
S'/carm/master/Testing/Automatic/picador/Spielscripts/small_res_max_legs_new_glc_syntax/memory.apc.parisc_2_0'
p29
sS'differenceId'
p30
I0
sS'newPerformance'
p31
F43.899999999999999
sS'oldPerformance'
p32
F44.299999999999997
sS'differenceCache'
p33
I0
sS'tmpFile'
p34
S'/users/nightjob/texttesttmp/apc.master.parisc_2_0.boostnightjob14Dec214040/Spielscripts/small_res_max_legs_new_glc_syntax/memory.apc.parisc_2_0'
p35
sS'stdCmpFile'
p36
g29
sS'percentageChange'
p37
F0.91116173120728616
sS'tmpCmpFile'
p38
g35
sS'descriptors'
p39
(dp40
S'goodperf'
p41
S'smaller'
p42
sS'badperf'
p43
S'larger'
p44
sS'config'
p45
S'memory'
p46
ssS'processCount'
p47
I1
sS'stem'
p48
g46
sS'perfComparison'
p49
(iperformance
PerformanceComparison
p50
(dp51
S'percentageChange'
p52
F0.91116173120728616
sS'oldPerformance'
p53
F44.299999999999997
sS'newPerformance'
p54
F43.899999999999999
sS'descriptor'
p55
S'smaller'
p56
sbsS'severity'
p57
I99
sba(icomparefile
FileComparison
p58
(dp59
g28
S'/carm/master/Testing/Automatic/picador/Spielscripts/small_res_max_legs_new_glc_syntax/peval.apc.boost'
p60
sg57
I99
sg30
I0
sg33
I0
sg34
S'/users/nightjob/texttesttmp/apc.master.parisc_2_0.boostnightjob14Dec214040/Spielscripts/small_res_max_legs_new_glc_syntax/peval.apc.boost'
p61
sg36
g60
sg38
g61
sg48
S'peval'
p62
sba(icomparefile
FileComparison
p63
(dp64
g28
S'/carm/master/Testing/Automatic/picador/Spielscripts/small_res_max_legs_new_glc_syntax/peval2.apc.boost'
p65
sg57
I99
sg30
I0
sg33
I0
sg34
S'/users/nightjob/texttesttmp/apc.master.parisc_2_0.boostnightjob14Dec214040/Spielscripts/small_res_max_legs_new_glc_syntax/peval2.apc.boost'
p66
sg36
S'/users/nightjob/texttesttmp/apc.master.parisc_2_0.boostnightjob14Dec214040/Spielscripts/small_res_max_legs_new_glc_syntax/framework_tmp/peval2.apc.boostorigcmp'
p67
sg38
S'/users/nightjob/texttesttmp/apc.master.parisc_2_0.boostnightjob14Dec214040/Spielscripts/small_res_max_legs_new_glc_syntax/framework_tmp/peval2.apc.boostcmp'
p68
sg48
S'peval2'
p69
sba(icomparefile
FileComparison
p70
(dp71
g28
S'/carm/master/Testing/Automatic/picador/Spielscripts/small_res_max_legs_new_glc_syntax/solution.apc'
p72
sg57
I1
sg30
I0
sg33
I0
sg34
S'/users/nightjob/texttesttmp/apc.master.parisc_2_0.boostnightjob14Dec214040/Spielscripts/small_res_max_legs_new_glc_syntax/solution.apc'
p73
sg36
g72
sg38
g73
sg48
S'solution'
p74
sba(icomparefile
FileComparison
p75
(dp76
g28
S'/carm/master/Testing/Automatic/picador/Spielscripts/small_res_max_legs_new_glc_syntax/status.apc.parisc_2_0'
p77
sg57
I1
sg30
I0
sg33
I0
sg34
S'/users/nightjob/texttesttmp/apc.master.parisc_2_0.boostnightjob14Dec214040/Spielscripts/small_res_max_legs_new_glc_syntax/status.apc.parisc_2_0'
p78
sg36
S'/users/nightjob/texttesttmp/apc.master.parisc_2_0.boostnightjob14Dec214040/Spielscripts/small_res_max_legs_new_glc_syntax/framework_tmp/status.apc.parisc_2_0origcmp'
p79
sg38
S'/users/nightjob/texttesttmp/apc.master.parisc_2_0.boostnightjob14Dec214040/Spielscripts/small_res_max_legs_new_glc_syntax/framework_tmp/status.apc.parisc_2_0cmp'
p80
sg48
g21
sba(icomparefile
FileComparison
p81
(dp82
g28
S'/carm/master/Testing/Automatic/picador/Spielscripts/small_res_max_legs_new_glc_syntax/warnings.apc'
p83
sg57
I1
sg30
I0
sg33
I0
sg34
S'/users/nightjob/texttesttmp/apc.master.parisc_2_0.boostnightjob14Dec214040/Spielscripts/small_res_max_legs_new_glc_syntax/warnings.apc'
p84
sg36
S'/users/nightjob/texttesttmp/apc.master.parisc_2_0.boostnightjob14Dec214040/Spielscripts/small_res_max_legs_new_glc_syntax/framework_tmp/warnings.apcorigcmp'
p85
sg38
S'/users/nightjob/texttesttmp/apc.master.parisc_2_0.boostnightjob14Dec214040/Spielscripts/small_res_max_legs_new_glc_syntax/framework_tmp/warnings.apccmp'
p86
sg48
S'warnings'
p87
sbasS'correctResults'
p88
(lp89
g26
ag58
ag63
ag70
ag75
ag81
asS'lifecycleChange'
p90
g10
sS'failedPrediction'
p91
NsS'completed'
p92
I1
sS'newResults'
p93
(lp94
sb.