(ioptimization
OptimizationTestComparison
p0
(dp2
S'category'
p3
S'failure'
p4
sS'changedResults'
p5
(lp6
(iperformance
PerformanceFileComparison
p7
(dp8
S'stdFile'
p9
S'/carm/master/Testing/Automatic/picador/Spielscripts/small_res_max_legs_new_glc_syntax/memory.apc.parisc_2_0'
p10
sS'differenceId'
p11
I1
sS'newPerformance'
p12
F19.800000000000001
sS'oldPerformance'
p13
F44.299999999999997
sS'differenceCache'
p14
I1
sS'tmpFile'
p15
S'/users/nightjob/texttesttmp/apc.master.parisc_2_0.boostnightjob15Dec214157/Spielscripts/small_res_max_legs_new_glc_syntax/memory.apc.parisc_2_0'
p16
sS'stdCmpFile'
p17
g10
sS'percentageChange'
p18
F123.73737373737373
sS'tmpCmpFile'
p19
g16
sS'descriptors'
p20
(dp21
S'goodperf'
p22
S'smaller'
p23
sS'badperf'
p24
S'larger'
p25
sS'config'
p26
S'memory'
p27
ssS'processCount'
p28
I1
sS'stem'
p29
g27
sS'perfComparison'
p30
(iperformance
PerformanceComparison
p31
(dp32
S'percentageChange'
p33
F123.73737373737373
sS'oldPerformance'
p34
F44.299999999999997
sS'newPerformance'
p35
F19.800000000000001
sS'descriptor'
p36
S'smaller'
p37
sbsS'severity'
p38
I99
sba(icomparefile
FileComparison
p39
(dp40
g9
S'/carm/master/Testing/Automatic/picador/Spielscripts/small_res_max_legs_new_glc_syntax/peval.apc.boost'
p41
sg38
I99
sg11
I1
sg14
I1
sg15
S'/users/nightjob/texttesttmp/apc.master.parisc_2_0.boostnightjob15Dec214157/Spielscripts/small_res_max_legs_new_glc_syntax/peval.apc.boost'
p42
sg17
g41
sg19
g42
sg29
S'peval'
p43
sba(icomparefile
FileComparison
p44
(dp45
g9
S'/carm/master/Testing/Automatic/picador/Spielscripts/small_res_max_legs_new_glc_syntax/peval2.apc.boost'
p46
sg38
I99
sg11
I1
sg14
I1
sg15
S'/users/nightjob/texttesttmp/apc.master.parisc_2_0.boostnightjob15Dec214157/Spielscripts/small_res_max_legs_new_glc_syntax/peval2.apc.boost'
p47
sg17
S'/users/nightjob/texttesttmp/apc.master.parisc_2_0.boostnightjob15Dec214157/Spielscripts/small_res_max_legs_new_glc_syntax/framework_tmp/peval2.apc.boostorigcmp'
p48
sg19
S'/users/nightjob/texttesttmp/apc.master.parisc_2_0.boostnightjob15Dec214157/Spielscripts/small_res_max_legs_new_glc_syntax/framework_tmp/peval2.apc.boostcmp'
p49
sg29
S'peval2'
p50
sba(icomparefile
FileComparison
p51
(dp52
g9
S'/carm/master/Testing/Automatic/picador/Spielscripts/small_res_max_legs_new_glc_syntax/solution.apc'
p53
sg38
I1
sg11
I1
sg14
I1
sg15
S'/users/nightjob/texttesttmp/apc.master.parisc_2_0.boostnightjob15Dec214157/Spielscripts/small_res_max_legs_new_glc_syntax/solution.apc'
p54
sg17
g53
sg19
g54
sg29
S'solution'
p55
sba(icomparefile
FileComparison
p56
(dp57
g9
S'/carm/master/Testing/Automatic/picador/Spielscripts/small_res_max_legs_new_glc_syntax/status.apc.parisc_2_0'
p58
sg38
I1
sg11
I1
sg14
I1
sg15
S'/users/nightjob/texttesttmp/apc.master.parisc_2_0.boostnightjob15Dec214157/Spielscripts/small_res_max_legs_new_glc_syntax/status.apc.parisc_2_0'
p59
sg17
S'/users/nightjob/texttesttmp/apc.master.parisc_2_0.boostnightjob15Dec214157/Spielscripts/small_res_max_legs_new_glc_syntax/framework_tmp/status.apc.parisc_2_0origcmp'
p60
sg19
S'/users/nightjob/texttesttmp/apc.master.parisc_2_0.boostnightjob15Dec214157/Spielscripts/small_res_max_legs_new_glc_syntax/framework_tmp/status.apc.parisc_2_0cmp'
p61
sg29
S'status'
p62
sba(icomparefile
FileComparison
p63
(dp64
g9
S'/carm/master/Testing/Automatic/picador/Spielscripts/small_res_max_legs_new_glc_syntax/warnings.apc'
p65
sg38
I1
sg11
I1
sg14
I1
sg15
S'/users/nightjob/texttesttmp/apc.master.parisc_2_0.boostnightjob15Dec214157/Spielscripts/small_res_max_legs_new_glc_syntax/warnings.apc'
p66
sg17
S'/users/nightjob/texttesttmp/apc.master.parisc_2_0.boostnightjob15Dec214157/Spielscripts/small_res_max_legs_new_glc_syntax/framework_tmp/warnings.apcorigcmp'
p67
sg19
S'/users/nightjob/texttesttmp/apc.master.parisc_2_0.boostnightjob15Dec214157/Spielscripts/small_res_max_legs_new_glc_syntax/framework_tmp/warnings.apccmp'
p68
sg29
S'warnings'
p69
sbasS'missingResults'
p70
(lp71
sS'freeText'
p72
S"------------------ Differences in memory(smaller) --------------------\n1c1\n< Max Memory  :      44.3 MB\n---\n> Max Memory  :      19.8 MB\n------------------ Differences in peval --------------------\n3d2\n< Rave Booster finished.\n------------------ Differences in peval2 --------------------\n19,22c19,241\n< Compiling... done.\n< Installing apc on architecture done.\n< Build Rave program finished\n< Cleaning up... done.\n---\n> /carm/master/Products/standard_gpc/CARMSYS/bin/crc_get_preferences[80]: 26528 Memory fault(coredump)\n> Compiling... /usr/ccs/bin/ld: Unsatisfied symbols:\n>    CRCComputeValue(int,int,void *,rave::Value &) (first referenced in /carm/master/Products/standard_gpc/CARMSYS/data/crc/parisc_2_0/librave_rts.a(iterations.o)) (code)\n>    rave::StringPool::PUBLIC (first referenced in /carm/master/Products/standard_gpc/CARMSYS/data/crc/parisc_2_0/librave_rts.a(crcfuncs.o)) (data)\n>    rave::Value::toString() const (first referenced in /carm/master/Products/standard_gpc/CARMSYS/data/crc/parisc_2_0/librave_rts.a(Explorer.o)) (code)\n>    rave::Value::Value(const char *,RaveType)%1 (first referenced in /carm/master/Products/standard_gpc/CARMSYS/data/crc/parisc_2_0/librave_rts.a(Explorer.o)) (code)\n>    crc_number_of_fourth_class_seats (first referenced in /carm/master/Products/standard_gpc/CARMSYS/Spielscripts_tmp.apc.parisc_2_0/compile/APC/parisc_2_0_opt/umlauf_spiel_new_glc_syntax2.SMALL_duty_gen_res_max_legs_ngs.26269.a(5355310ef19f21160908733cb8008451.o)) (code)\n>    crc_changed_assignment_valid (first referenced in /carm/master/Products/standard_gpc/CARMSYS/Spielscripts_tmp.apc.parisc_2_0/compile/APC/parisc_2_0_opt/umlauf_spiel_new_glc_syntax2.SMALL_duty_gen_res_max_legs_ngs.26269.a(5355310ef19f21160908733cb8008451.o)) (code)\n>    crc_lp_period_end (first referenced in /carm/master/Products/standard_gpc/CARMSYS/Spielscripts_tmp.apc.parisc_2_0/compile/APC/parisc_2_0_opt/umlauf_spiel_new_glc_syntax2.SMALL_duty_gen_res_max_legs_ngs.26269.a(5355310ef19f21160908733cb8008451.o)) (code)\n>    crc_vehicle_change_leg_multi (first referenced in /carm/master/Products/standard_gpc/CARMSYS/Spielscripts_tmp.apc.parisc_2_0/compile/APC/parisc_2_0_opt/umlauf_spiel_new_glc_syntax2.SMALL_duty_gen_res_max_legs_ngs.26269.a(5355310ef19f21160908733cb8008451.o)) (code)\n>    crc_extra_seat (first referenced in /carm/master/Products/standard_gpc/CARMSYS/Spielscripts_tmp.apc.parisc_2_0/compile/APC/parisc_2_0_opt/umlauf_spiel_new_glc_syntax2.SMALL_duty_gen_res_max_legs_ngs.26269.a(5355310ef19f21160908733cb8008451.o)) (code)\n>    crc_aircraft_type_custom (first referenced in /carm/master/Products/standard_gpc/CARMSYS/Spielscripts_tmp.apc.parisc_2_0/compile/APC/parisc_2_0_opt/umlauf_spiel_new_glc_syntax2.SMALL_duty_gen_res_max_legs_ngs.26269.a(5355310ef19f21160908733cb8008451.o)) (code)\n>    rave::StringPool::m_defaultMemoryLimit (first referenced in /carm/master/Products/standard_gpc/CARMSYS/data/crc/parisc_2_0/librave_rts.a(crcfuncs.o)) (data)\n>    rave::TableError::what() const (first referenced in /carm/master/Products/standard_gpc/CARMSYS/data/crc/parisc_2_0/librave_rts.a(etable.o)) (code)\n>    crc_turnin_leg_departure (first referenced in /carm/master/Products/standard_gpc/CARMSYS/Spielscripts_tmp.apc.parisc_2_0/compile/APC/parisc_2_0_opt/umlauf_spiel_new_glc_syntax2.SMALL_duty_gen_res_max_legs_ngs.26269.a(5355310ef19f21160908733cb8008451.o)) (code)\n>    crc_departure (first referenced in /carm/master/Products/standard_gpc/CARMSYS/Spielscripts_tmp.apc.parisc_2_0/compile/APC/parisc_2_0_opt/umlauf_spiel_new_glc_syntax2.SMALL_duty_gen_res_max_legs_ngs.26269.a(5355310ef19f21160908733cb8008451.o)) (code)\n>    crc_flight_number (first referenced in /carm/master/Products/standard_gpc/CARMSYS/Spielscripts_tmp.apc.parisc_2_0/compile/APC/parisc_2_0_opt/umlauf_spiel_new_glc_syntax2.SMALL_duty_gen_res_max_legs_ngs.26269.a(5355310ef19f21160908733cb8008451.o)) (code)\n>    crc_off_duty_code (first referenced in /carm/master/Products/standard_gpc/CARMSYS/Spielscripts_tmp.apc.parisc_2_0/compile/APC/parisc_2_0_opt/umlauf_spiel_new_glc_syntax2.SMALL_duty_gen_res_max_legs_ngs.26269.a(5355310ef19f21160908733cb8008451.o)) (code)\n>    crc_flight_carrier (first referenced in /carm/master/Products/standard_gpc/CARMSYS/Spielscripts_tmp.apc.parisc_2_0/compile/APC/parisc_2_0_opt/umlauf_spiel_new_glc_syntax2.SMALL_duty_gen_res_max_legs_ngs.26269.a(5355310ef19f21160908733cb8008451.o)) (code)\n>    crc_crr_is_closed_last (first referenced in /carm/master/Products/standard_gpc/CARMSYS/Spielscripts_tmp.apc.parisc_2_0/compile/APC/parisc_2_0_opt/umlauf_spiel_new_glc_syntax2.SMALL_duty_gen_res_max_legs_ngs.26269.a(5355310ef19f21160908733cb8008451.o)) (code)\n>    newArgsBody() (first referenced in /carm/master/Products/standard_gpc/CARMSYS/data/crc/parisc_2_0/librave_rts.a(crcfuncs.o)) (code)\n>    crc_arrival_time_zone (first referenced in /carm/master/Products/standard_gpc/CARMSYS/Spielscripts_tmp.apc.parisc_2_0/compile/APC/parisc_2_0_opt/umlauf_spiel_new_glc_syntax2.SMALL_duty_gen_res_max_legs_ngs.26269.a(5355310ef19f21160908733cb8008451.o)) (code)\n>    crc_departure_latitude (first referenced in /carm/master/Products/standard_gpc/CARMSYS/Spielscripts_tmp.apc.parisc_2_0/compile/APC/parisc_2_0_opt/umlauf_spiel_new_glc_syntax2.SMALL_duty_gen_res_max_legs_ngs.26269.a(5355310ef19f21160908733cb8008451.o)) (code)\n>    rave::StringPool::m_instance (first referenced in /carm/master/Products/standard_gpc/CARMSYS/data/crc/parisc_2_0/librave_rts.a(crcfuncs.o)) (data)\n------------------ Differences in solution --------------------\n1,49c1\n< SECTION apc_oags Solution_1\n< 147;APC_SEGMENT_KEY_1;APC_SEGMENT;APC_SEGMENT_TYPE;FLIGHT_CARRIER;FLIGHT_NUMBER;FLIGHT_DEP_AIRP;FLIGHT_ARR_AIRP;FLIGHT_DATE;FLIGHT_DEP_TIME;FLIGHT_BLOCK_TIME;FLIGHT_IATA;CUSTOM_AC_TYPE;FLIGHT_SUFFIX;FLIGHT_LEG_NO;TASK_SUB_CODE;ONWARD_SEGMENT_KEY;FLIGHT_SERVICE_TYPE;BOOKED_CREW_VECTOR_LENGTH;BOOKED_CREW_VECTOR;AC_OWNER;FLIGHT_ONW_FLIGHT_NUM;PASSENGER_TERMINAL_DEPARTURE_STATION;PASSENGER_TERMINAL_ARRIVAL_STATION;FIRST_CLASS_CAP;BUSINESS_CLASS_CAP;ECONOMY_CLASS_CAP;FOURTH_CLASS_CAP;COCKPIT_CREW_E\nMPLOYER;CABIN_CREW_EMPLOYER;FLIGHT_GDOR;\n< SECTION ground_transport Solution_1\n< 147;APC_SEGMENT_KEY_1;APC_SEGMENT;APC_SEGMENT_TYPE;FLIGHT_CARRIER;FLIGHT_NUMBER;FLIGHT_DEP_AIRP;FLIGHT_ARR_AIRP;FLIGHT_DATE;FLIGHT_DEP_TIME;FLIGHT_BLOCK_TIME;FLIGHT_IATA;CUSTOM_AC_TYPE;FLIGHT_SUFFIX;FLIGHT_LEG_NO;TASK_SUB_CODE;ONWARD_SEGMENT_KEY;FLIGHT_SERVICE_TYPE;BOOKED_CREW_VECTOR_LENGTH;BOOKED_CREW_VECTOR;AC_OWNER;FLIGHT_ONW_FLIGHT_NUM;PASSENGER_TERMINAL_DEPARTURE_STATION;PASSENGER_TERMINAL_ARRIVAL_STATION;FIRST_CLASS_CAP;BUSINESS_CLASS_CAP;ECONOMY_CLASS_CAP;FOURTH_CLASS_CAP;COCKPIT_CREW_E\nMPLOYER;CABIN_CREW_EMPLOYER;FLIGHT_GDOR;\n< SECTION apc_chains Solution_1\n< 142;APC_CHAIN_NUMBER;APC_CHAIN_LEG_COUNT;APC_CHAIN_LRC_FLAG;APC_CHAIN_CREW_VECTOR_LEN;APC_CHAIN_CREW_VECTOR;APC_CHAIN_CREW_ID;APC_CHAIN_CREW_POS;APC_CHAIN_HOMEBASE;APC_CHAIN_CATEGORY;APC_CHAIN_MAIN_VARIANT;\n< 144;APC_SEGMENT_PTR;APC_SEGMENT_OFFFSET;APC_SEGMENT_START_OFFSET;APC_SEGMENT_END_OFFSET;APC_SEGMENT_DUTY_DESIGNATOR;APC_SEGMENT_DUTY_TYPE;APC_SEGMENT_BASE;APC_SEGMENT_BIT_FIELD;APC_SEGMENT_CUSTOMER_INDEX;\n< 143;159;15;C;8;1,0,0,0,0,0,0,0,;;-1;FRA;;-1;\n< 145;21850;0;0;0;A;;;0x40;0;\n< 145;30238;0;0;0;A;;;0x40;0;\n< 145;2126;0;0;0;A;;;0x40;0;\n< 145;27512;0;0;0;A;;;0x40;0;\n< 145;11344;0;0;0;A;;;0x40;0;\n< 145;16484;0;0;0;A;;;0x40;0;\n< 145;8982;0;0;0;A;;;0x40;0;\n< 145;7310;0;0;0;A;;;0x40;0;\n< 145;3731;0;0;0;A;;;0x40;0;\n< 145;26950;0;0;0;A;;;0x40;0;\n< 145;2773;0;0;0;A;;;0x40;0;\n< 145;29810;0;0;0;A;;;0x40;0;\n< 145;9571;0;0;0;A;;;0x40;0;\n< 145;9750;0;0;0;A;;;0x40;0;\n< 145;15756;0;0;0;A;;;0x40;0;\n< 143;160;10;C;8;1,0,0,0,0,0,0,0,;;-1;FRA;;-1;\n< 145;31577;0;0;0;A;;;0x40;0;\n< 145;31285;0;0;0;A;;;0x40;0;\n< 145;14602;0;0;0;A;;;0x40;0;\n< 145;29335;0;0;0;A;;;0x40;0;\n< 145;25570;0;0;0;A;;;0x40;0;\n------------------ Differences in status --------------------\n95,555d94\n< SECTION apc_status Solution_1\n< APC STATUS REPORT OVERVIEW\n< \n< APC producing solution number: 1\n< Active method: column generator, module: pricing (with reduced set of duties)\n< Generated trips: 51 this loop\n< \n< --- Summary of solution (column generation) ---\n< \n<  Period................: 20020303 - 20020309\n< \n<  legs..........................................: 37\n<   uncovered legs...............................: 0\n<  overcovers (will become deadheads)............: 0\n<  illegal trips.................................: 0\n< \n<  TOTAL cost....................................:     1590\n< \n<   APC total rule cost..........................:     1590\n<    rule overcover cost.........................:        0\n<   extra overcover cost.........................:        0\n<   global constraint excess cost................:        0\n<   base constraint excess cost..................:        0\n< \n< APC SOLUTION ANALYSIS\n< \n<  working days..................................: 13\n<  block time....................................: 53:00\n<  average block time per working day............: 4:04\n------------------ Differences in warnings --------------------\n7,8d6\n< Cannot find map_leg_allowed_as_deadhead value ''.\n< All legs will be allowed as deadheads.\n------------------ New result in script_errors --------------------\nERROR: Rave Booster compilation failed\n"
p73
sS'started'
p74
I1
sS'appWriteDir'
p75
S'/users/nightjob/texttesttmp/apc.master.parisc_2_0.boostnightjob15Dec214157'
p76
sS'costName'
p77
S'TOTAL cost'
p78
sS'briefText'
p79
S''
p80
sS'executionHosts'
p81
(lp82
S'haiphong'
p83
asS'logStem'
p84
g62
sS'appAbsPath'
p85
S'/carm/master/Testing/Automatic/picador'
p86
sS'allResults'
p87
(lp88
g7
ag39
ag44
a(icomparefile
FileComparison
p89
(dp90
g9
S'/carm/master/Testing/Automatic/picador/Spielscripts/small_res_max_legs_new_glc_syntax/script_errors.apc'
p91
sg38
I1
sg11
I0
sg14
I0
sg15
S'/users/nightjob/texttesttmp/apc.master.parisc_2_0.boostnightjob15Dec214157/Spielscripts/small_res_max_legs_new_glc_syntax/script_errors.apc'
p92
sg17
g91
sg19
g92
sg29
S'script_errors'
p93
sbag51
ag56
ag63
asS'correctResults'
p94
(lp95
sS'lifecycleChange'
p96
g80
sS'failedPrediction'
p97
NsS'completed'
p98
I1
sS'newResults'
p99
(lp100
g89
asb.