(ioptimization
OptimizationTestComparison
p1
(dp2
S'category'
p3
S'larger'
p4
sS'changedResults'
p5
(lp6
(iperformance
PerformanceFileComparison
p7
(dp8
S'stdFile'
p9
S'/carm/proj/matador2/publish/master/Testing/Automatic/picador/Spielscripts/small_res_max_legs_new_glc_syntax/memory.apc.parisc_2_0'
p10
sS'differenceId'
p11
I1
sS'newPerformance'
p12
F45.200000000000003
sS'stdCmpFile'
p13
g10
sS'oldPerformance'
p14
F44.299999999999997
sS'tmpFile'
p15
S'/users/hamid/texttesttmp/apc.master.parisc_2_0.boosthamid19Dec220022/Spielscripts/small_res_max_legs_new_glc_syntax/memory.apc.parisc_2_0'
p16
sS'tmpCmpFile'
p17
g16
sS'stem'
p18
S'memory'
p19
sS'percentageChange'
p20
F2.0316027088036246
sS'diag'
p21
(ilog4py
Logger
(dp22
S'_Logger__Logger_functionname'
p23
S''
sS'_Logger__Logger_module'
p24
S''
sS'_Logger__Logger_linenumber'
p25
I-1
sS'_Logger__Logger_classname'
p26
S'performance'
p27
sS'_Logger__Logger_targets'
p28
(lp29
S'sys.stdout'
p30
asS'_Logger__Logger_formatstring'
p31
S'%T %L %C [%F] %x%M'
p32
sS'_Logger__Logger_filename'
p33
S''
sS'_Logger__Logger_classid'
p34
NsS'_Logger__Logger_timelaststep'
p35
F1135026485.361376
sS'_Logger__Logger_configfilename'
p36
S''
sS'_Logger__Logger_ndc'
p37
(lsS'_Logger__Logger_useansicodes'
p38
S'FALSE'
p39
sS'_Logger__Logger_timeinit'
p40
F1135026485.361376
sS'_Logger__Logger_loglevel'
p41
I1
sS'_Logger__Logger_timeformat'
p42
S'%m/%d/%y %H:%M:%S'
p43
sS'_Logger__Logger_rotation'
p44
I0
sbsS'processCount'
p45
I1
sS'descriptors'
p46
(dp47
S'goodperf'
p48
S'smaller'
p49
sS'badperf'
p50
g4
sS'config'
p51
g19
ssS'severity'
p52
I99
sba(icomparetest
FileComparison
p53
(dp54
g9
S'/carm/proj/matador2/publish/master/Testing/Automatic/picador/Spielscripts/small_res_max_legs_new_glc_syntax/peval2.apc.boost'
sg52
I99
sg11
I1
sg15
S'/users/hamid/texttesttmp/apc.master.parisc_2_0.boosthamid19Dec220022/Spielscripts/small_res_max_legs_new_glc_syntax/peval2.apc.boost'
sg13
S'/users/hamid/texttesttmp/apc.master.parisc_2_0.boosthamid19Dec220022/Spielscripts/small_res_max_legs_new_glc_syntax/framework_tmp/peval2.apc.boostorigcmp'
sg18
S'peval2'
p55
sg17
S'/users/hamid/texttesttmp/apc.master.parisc_2_0.boosthamid19Dec220022/Spielscripts/small_res_max_legs_new_glc_syntax/framework_tmp/peval2.apc.boostcmp'
sbasS'freeText'
p56
S'------------------ Differences in memory(larger) --------------------\n1c1\n< Max Memory  :      44.3 MB\n---\n> Max Memory  :      45.2 MB\n------------------ Differences in peval2 --------------------\n21c21,22\n< Build Rave program finished\n---\n> /carm/proj/matador2/publish/master/Products/standard_gpc/CARMSYS/bin/crc_compile[1626]: 16423 Memory fault(coredump)\n>  finished at 19 December 22:08\n'
sS'started'
p57
I1
sg21
(ilog4py
Logger
(dp58
g23
S''
sg24
S''
sg25
I-1
sg26
S'testcomparison'
p59
sg28
(lp60
g30
asg31
g32
sg33
S''
sg34
Nsg35
F1135026485.361376
sg36
S''
sg37
(lsg38
g39
sg40
F1135026485.361376
sg41
I1
sg42
g43
sg44
I0
sbsS'costName'
p61
S'TOTAL cost'
sS'briefText'
p62
S''
sS'executionHosts'
p63
(lp64
S'haiphong'
p65
asS'logStem'
p66
S'status'
p67
sS'appAbsPath'
p68
S'/carm/proj/matador2/publish/master/Testing/Automatic/picador'
sS'allResults'
p69
(lp70
g7
a(icomparetest
FileComparison
p71
(dp72
g9
S'/carm/proj/matador2/publish/master/Testing/Automatic/picador/Spielscripts/small_res_max_legs_new_glc_syntax/peval.apc.boost'
p73
sg52
I99
sg11
I0
sg15
S'/users/hamid/texttesttmp/apc.master.parisc_2_0.boosthamid19Dec220022/Spielscripts/small_res_max_legs_new_glc_syntax/peval.apc.boost'
p74
sg13
g73
sg18
S'peval'
p75
sg17
g74
sbag53
a(icomparetest
FileComparison
p76
(dp77
g9
S'/carm/proj/matador2/publish/master/Testing/Automatic/picador/Spielscripts/small_res_max_legs_new_glc_syntax/solution.apc'
p78
sg52
I1
sg11
I0
sg15
S'/users/hamid/texttesttmp/apc.master.parisc_2_0.boosthamid19Dec220022/Spielscripts/small_res_max_legs_new_glc_syntax/solution.apc'
p79
sg13
g78
sg18
S'solution'
p80
sg17
g79
sba(icomparetest
FileComparison
p81
(dp82
g9
S'/carm/proj/matador2/publish/master/Testing/Automatic/picador/Spielscripts/small_res_max_legs_new_glc_syntax/status.apc.parisc_2_0'
sg52
I1
sg11
I0
sg15
S'/users/hamid/texttesttmp/apc.master.parisc_2_0.boosthamid19Dec220022/Spielscripts/small_res_max_legs_new_glc_syntax/status.apc.parisc_2_0'
sg13
S'/users/hamid/texttesttmp/apc.master.parisc_2_0.boosthamid19Dec220022/Spielscripts/small_res_max_legs_new_glc_syntax/framework_tmp/status.apc.parisc_2_0origcmp'
sg18
g67
sg17
S'/users/hamid/texttesttmp/apc.master.parisc_2_0.boosthamid19Dec220022/Spielscripts/small_res_max_legs_new_glc_syntax/framework_tmp/status.apc.parisc_2_0cmp'
sba(icomparetest
FileComparison
p83
(dp84
g9
S'/carm/proj/matador2/publish/master/Testing/Automatic/picador/Spielscripts/small_res_max_legs_new_glc_syntax/warnings.apc'
sg52
I1
sg11
I0
sg15
S'/users/hamid/texttesttmp/apc.master.parisc_2_0.boosthamid19Dec220022/Spielscripts/small_res_max_legs_new_glc_syntax/warnings.apc'
sg13
S'/users/hamid/texttesttmp/apc.master.parisc_2_0.boosthamid19Dec220022/Spielscripts/small_res_max_legs_new_glc_syntax/framework_tmp/warnings.apcorigcmp'
sg18
S'warnings'
p85
sg17
S'/users/hamid/texttesttmp/apc.master.parisc_2_0.boosthamid19Dec220022/Spielscripts/small_res_max_legs_new_glc_syntax/framework_tmp/warnings.apccmp'
sbasS'appWriteDir'
p86
S'/users/hamid/texttesttmp/apc.master.parisc_2_0.boosthamid19Dec220022'
sS'correctResults'
p87
(lp88
g71
ag76
ag81
ag83
asS'lifecycleChange'
p89
S''
sS'failedPrediction'
p90
NsS'completed'
p91
I1
sS'newResults'
p92
(lsb.