(ioptimization
OptimizationTestComparison
p0
(dp2
S'category'
p3
S'larger'
p4
sS'changedResults'
p5
(lp6
(iperformance
PerformanceFileComparison
p7
(dp8
S'stdFile'
p9
S'/carm/proj/matador2/publish/master/Testing/Automatic/picador/Spielscripts/small_res_max_legs_new_glc_syntax/memory.apc.parisc_2_0'
p10
sS'differenceId'
p11
I1
sS'newPerformance'
p12
F45.200000000000003
sS'oldPerformance'
p13
F44.299999999999997
sS'differenceCache'
p14
I1
sS'tmpFile'
p15
S'/users/hamid/texttesttmp/apc.master.parisc_2_0.boosthamid19Dec220022/Spielscripts/small_res_max_legs_new_glc_syntax/memory.apc.parisc_2_0'
p16
sS'stdCmpFile'
p17
g10
sS'percentageChange'
p18
F2.0316027088036246
sS'tmpCmpFile'
p19
g16
sS'descriptors'
p20
(dp21
S'goodperf'
p22
S'smaller'
p23
sS'badperf'
p24
g4
sS'config'
p25
S'memory'
p26
ssS'processCount'
p27
I1
sS'stem'
p28
g26
sS'perfComparison'
p29
(iperformance
PerformanceComparison
p30
(dp31
S'percentageChange'
p32
F2.0316027088036246
sS'oldPerformance'
p33
F44.299999999999997
sS'newPerformance'
p34
F45.200000000000003
sS'descriptor'
p35
S'larger'
p36
sbsS'severity'
p37
I99
sba(icomparefile
FileComparison
p38
(dp39
g9
S'/carm/proj/matador2/publish/master/Testing/Automatic/picador/Spielscripts/small_res_max_legs_new_glc_syntax/peval2.apc.boost'
p40
sg37
I99
sg11
I1
sg14
I1
sg15
S'/users/hamid/texttesttmp/apc.master.parisc_2_0.boosthamid19Dec220022/Spielscripts/small_res_max_legs_new_glc_syntax/peval2.apc.boost'
p41
sg17
S'/users/hamid/texttesttmp/apc.master.parisc_2_0.boosthamid19Dec220022/Spielscripts/small_res_max_legs_new_glc_syntax/framework_tmp/peval2.apc.boostorigcmp'
p42
sg19
S'/users/hamid/texttesttmp/apc.master.parisc_2_0.boosthamid19Dec220022/Spielscripts/small_res_max_legs_new_glc_syntax/framework_tmp/peval2.apc.boostcmp'
p43
sg28
S'peval2'
p44
sbasS'missingResults'
p45
(lp46
sS'freeText'
p47
S'------------------ Differences in memory(larger) --------------------\n1c1\n< Max Memory  :      44.3 MB\n---\n> Max Memory  :      45.2 MB\n------------------ Differences in peval2 --------------------\n21c21,22\n< Build Rave program finished\n---\n> /carm/proj/matador2/publish/master/Products/standard_gpc/CARMSYS/bin/crc_compile[1626]: 16423 Memory fault(coredump)\n>  finished at 19 December 22:08\n'
p48
sS'started'
p49
I1
sS'appWriteDir'
p50
S'/users/hamid/texttesttmp/apc.master.parisc_2_0.boosthamid19Dec220022'
p51
sS'costName'
p52
S'TOTAL cost'
p53
sS'briefText'
p54
S''
p55
sS'executionHosts'
p56
(lp57
S'haiphong'
p58
asS'logStem'
p59
S'status'
p60
sS'appAbsPath'
p61
S'/carm/proj/matador2/publish/master/Testing/Automatic/picador'
p62
sS'allResults'
p63
(lp64
g7
a(icomparefile
FileComparison
p65
(dp66
g9
S'/carm/proj/matador2/publish/master/Testing/Automatic/picador/Spielscripts/small_res_max_legs_new_glc_syntax/peval.apc.boost'
p67
sg37
I99
sg11
I0
sg14
I0
sg15
S'/users/hamid/texttesttmp/apc.master.parisc_2_0.boosthamid19Dec220022/Spielscripts/small_res_max_legs_new_glc_syntax/peval.apc.boost'
p68
sg17
g67
sg19
g68
sg28
S'peval'
p69
sbag38
a(icomparefile
FileComparison
p70
(dp71
g9
S'/carm/proj/matador2/publish/master/Testing/Automatic/picador/Spielscripts/small_res_max_legs_new_glc_syntax/solution.apc'
p72
sg37
I1
sg11
I0
sg14
I0
sg15
S'/users/hamid/texttesttmp/apc.master.parisc_2_0.boosthamid19Dec220022/Spielscripts/small_res_max_legs_new_glc_syntax/solution.apc'
p73
sg17
g72
sg19
g73
sg28
S'solution'
p74
sba(icomparefile
FileComparison
p75
(dp76
g9
S'/carm/proj/matador2/publish/master/Testing/Automatic/picador/Spielscripts/small_res_max_legs_new_glc_syntax/status.apc.parisc_2_0'
p77
sg37
I1
sg11
I0
sg14
I0
sg15
S'/users/hamid/texttesttmp/apc.master.parisc_2_0.boosthamid19Dec220022/Spielscripts/small_res_max_legs_new_glc_syntax/status.apc.parisc_2_0'
p78
sg17
S'/users/hamid/texttesttmp/apc.master.parisc_2_0.boosthamid19Dec220022/Spielscripts/small_res_max_legs_new_glc_syntax/framework_tmp/status.apc.parisc_2_0origcmp'
p79
sg19
S'/users/hamid/texttesttmp/apc.master.parisc_2_0.boosthamid19Dec220022/Spielscripts/small_res_max_legs_new_glc_syntax/framework_tmp/status.apc.parisc_2_0cmp'
p80
sg28
g60
sba(icomparefile
FileComparison
p81
(dp82
g9
S'/carm/proj/matador2/publish/master/Testing/Automatic/picador/Spielscripts/small_res_max_legs_new_glc_syntax/warnings.apc'
p83
sg37
I1
sg11
I0
sg14
I0
sg15
S'/users/hamid/texttesttmp/apc.master.parisc_2_0.boosthamid19Dec220022/Spielscripts/small_res_max_legs_new_glc_syntax/warnings.apc'
p84
sg17
S'/users/hamid/texttesttmp/apc.master.parisc_2_0.boosthamid19Dec220022/Spielscripts/small_res_max_legs_new_glc_syntax/framework_tmp/warnings.apcorigcmp'
p85
sg19
S'/users/hamid/texttesttmp/apc.master.parisc_2_0.boosthamid19Dec220022/Spielscripts/small_res_max_legs_new_glc_syntax/framework_tmp/warnings.apccmp'
p86
sg28
S'warnings'
p87
sbasS'correctResults'
p88
(lp89
g65
ag70
ag75
ag81
asS'lifecycleChange'
p90
g55
sS'failedPrediction'
p91
NsS'completed'
p92
I1
sS'newResults'
p93
(lp94
sb.