(ioptimization
OptimizationTestComparison
p0
(dp2
S'category'
p3
S'success'
p4
sS'changedResults'
p5
(lp6
sS'missingResults'
p7
(lp8
sS'freeText'
p9
S''
p10
sS'appAbsPath'
p11
S'/carm/proj/matador2/publish/master/Testing/Automatic/matador'
p12
sS'appWriteDir'
p13
S'/users/jensk/texttesttmp/cas.master.i386_linux.paralleljensk23Mar220006'
p14
sS'costName'
p15
S'cost of plan'
p16
sS'briefText'
p17
g10
sS'executionHosts'
p18
(lp19
S'hackedville'
p20
aS'onepusu'
p21
asS'logStem'
p22
S'output'
p23
sS'started'
p24
I1
sS'allResults'
p25
(lp26
(icomparefile
FileComparison
p27
(dp28
S'stdFile'
p29
S'/carm/proj/matador2/publish/master/Testing/Automatic/matador/RD_ib_cas_v8scripts/allcrew_bb_ixg/errors.cas'
p30
sS'severity'
p31
I2
sS'differenceId'
p32
I0
sS'differenceCache'
p33
I0
sS'tmpFile'
p34
S'/users/jensk/texttesttmp/cas.master.i386_linux.paralleljensk23Mar220006/RD_ib_cas_v8scripts/allcrew_bb_ixg/errors.cas'
p35
sS'stdCmpFile'
p36
S'/users/jensk/texttesttmp/cas.master.i386_linux.paralleljensk23Mar220006/RD_ib_cas_v8scripts/allcrew_bb_ixg/framework_tmp/errors.casorigcmp'
p37
sS'tmpCmpFile'
p38
S'/users/jensk/texttesttmp/cas.master.i386_linux.paralleljensk23Mar220006/RD_ib_cas_v8scripts/allcrew_bb_ixg/framework_tmp/errors.cascmp'
p39
sS'stem'
p40
S'errors'
p41
sba(iperformance
PerformanceFileComparison
p42
(dp43
g29
S'/carm/proj/matador2/publish/master/Testing/Automatic/matador/RD_ib_cas_v8scripts/allcrew_bb_ixg/memory.cas'
p44
sg32
I0
sS'newPerformance'
p45
F104.0
sS'oldPerformance'
p46
F99.0
sg33
I0
sg34
S'/users/jensk/texttesttmp/cas.master.i386_linux.paralleljensk23Mar220006/RD_ib_cas_v8scripts/allcrew_bb_ixg/memory.cas'
p47
sg36
g44
sS'percentageChange'
p48
F5.0505050505050502
sg38
g47
sS'descriptors'
p49
(dp50
S'goodperf'
p51
S'smaller'
p52
sS'badperf'
p53
S'larger'
p54
sS'config'
p55
S'memory'
p56
ssS'processCount'
p57
I2
sg40
g56
sS'perfComparison'
p58
(iperformance
PerformanceComparison
p59
(dp60
S'percentageChange'
p61
F5.0505050505050502
sS'oldPerformance'
p62
F99.0
sS'newPerformance'
p63
F104.0
sS'descriptor'
p64
S'larger'
p65
sbsg31
I4
sba(icomparefile
FileComparison
p66
(dp67
g29
S'/carm/proj/matador2/publish/master/Testing/Automatic/matador/RD_ib_cas_v8scripts/allcrew_bb_ixg/output.cas'
p68
sg31
I2
sg32
I0
sg33
I0
sg34
S'/users/jensk/texttesttmp/cas.master.i386_linux.paralleljensk23Mar220006/RD_ib_cas_v8scripts/allcrew_bb_ixg/output.cas'
p69
sg36
S'/users/jensk/texttesttmp/cas.master.i386_linux.paralleljensk23Mar220006/RD_ib_cas_v8scripts/allcrew_bb_ixg/framework_tmp/output.casorigcmp'
p70
sg38
S'/users/jensk/texttesttmp/cas.master.i386_linux.paralleljensk23Mar220006/RD_ib_cas_v8scripts/allcrew_bb_ixg/framework_tmp/output.cascmp'
p71
sg40
g23
sba(iperformance
PerformanceFileComparison
p72
(dp73
g29
S'/carm/proj/matador2/publish/master/Testing/Automatic/matador/RD_ib_cas_v8scripts/allcrew_bb_ixg/performance.cas.parallel'
p74
sg32
I0
sg45
F180.19999999999999
sg46
F200.83000000000001
sg33
I0
sg34
S'/users/jensk/texttesttmp/cas.master.i386_linux.paralleljensk23Mar220006/RD_ib_cas_v8scripts/allcrew_bb_ixg/performance.cas.parallel'
p75
sg36
g74
sg48
F11.448390677025541
sg38
g75
sg49
(dp76
g51
S'faster'
p77
sg53
S'slower'
p78
sg55
S'cputime'
p79
ssg57
I2
sg40
S'performance'
p80
sg58
(iperformance
PerformanceComparison
p81
(dp82
g61
F11.448390677025541
sg62
F200.83000000000001
sg63
F180.19999999999999
sg64
S'faster'
p83
sbsg31
I3
sba(icomparefile
FileComparison
p84
(dp85
g29
S'/carm/proj/matador2/publish/master/Testing/Automatic/matador/RD_ib_cas_v8scripts/allcrew_bb_ixg/solution.cas'
p86
sg31
I1
sg32
I0
sg33
I0
sg34
S'/users/jensk/texttesttmp/cas.master.i386_linux.paralleljensk23Mar220006/RD_ib_cas_v8scripts/allcrew_bb_ixg/solution.cas'
p87
sg36
g86
sg38
g87
sg40
S'solution'
p88
sbasS'correctResults'
p89
(lp90
g27
ag42
ag66
ag72
ag84
asS'lifecycleChange'
p91
g10
sS'failedPrediction'
p92
NsS'completed'
p93
I1
sS'newResults'
p94
(lp95
sb.