(ioptimization
OptimizationTestComparison
p0
(dp2
S'category'
p3
S'crash'
p4
sS'changedResults'
p5
(lp6
(icomparefile
FileComparison
p7
(dp8
S'stdFile'
p9
S'/carm/proj/matador2/publish/master/Testing/Automatic/matador/RD_ib_cas_v8scripts/allcrew_bb_ixg/errors.cas'
p10
sS'severity'
p11
I2
sS'differenceId'
p12
I1
sS'differenceCache'
p13
I1
sS'tmpFile'
p14
S'/users/jensk/texttesttmp/cas.master.i386_linux.paralleljensk22Mar220002/RD_ib_cas_v8scripts/allcrew_bb_ixg/errors.cas'
p15
sS'stdCmpFile'
p16
S'/users/jensk/texttesttmp/cas.master.i386_linux.paralleljensk22Mar220002/RD_ib_cas_v8scripts/allcrew_bb_ixg/framework_tmp/errors.casorigcmp'
p17
sS'tmpCmpFile'
p18
S'/users/jensk/texttesttmp/cas.master.i386_linux.paralleljensk22Mar220002/RD_ib_cas_v8scripts/allcrew_bb_ixg/framework_tmp/errors.cascmp'
p19
sS'stem'
p20
S'errors'
p21
sba(icomparefile
FileComparison
p22
(dp23
g9
S'/carm/proj/matador2/publish/master/Testing/Automatic/matador/RD_ib_cas_v8scripts/allcrew_bb_ixg/output.cas'
p24
sg11
I2
sg12
I1
sg13
I1
sg14
S'/users/jensk/texttesttmp/cas.master.i386_linux.paralleljensk22Mar220002/RD_ib_cas_v8scripts/allcrew_bb_ixg/output.cas'
p25
sg16
S'/users/jensk/texttesttmp/cas.master.i386_linux.paralleljensk22Mar220002/RD_ib_cas_v8scripts/allcrew_bb_ixg/framework_tmp/output.casorigcmp'
p26
sg18
S'/users/jensk/texttesttmp/cas.master.i386_linux.paralleljensk22Mar220002/RD_ib_cas_v8scripts/allcrew_bb_ixg/framework_tmp/output.cascmp'
p27
sg20
S'output'
p28
sbasS'missingResults'
p29
(lp30
(icomparefile
FileComparison
p31
(dp32
g9
S'/carm/proj/matador2/publish/master/Testing/Automatic/matador/RD_ib_cas_v8scripts/allcrew_bb_ixg/solution.cas'
p33
sg11
I1
sg12
I0
sg13
I0
sg14
S'/users/jensk/texttesttmp/cas.master.i386_linux.paralleljensk22Mar220002/RD_ib_cas_v8scripts/allcrew_bb_ixg/solution.cas'
p34
sg16
g33
sg18
g34
sg20
S'solution'
p35
sbasS'freeText'
p36
S"Program terminated with signal 11, Segmentation fault.\nStack trace from gdb :\n?? \nCarmenResource::inqValue \nCarmenPathManager::getDir \nCarmenPathManager::getDir \nCarmenPathManager::getAllEtabPaths \nRAVEGlobal::RAVEGlobal \nApplicationBase::doInitSingletons \nApplicationStartup::runApplication \ncomponent_main \nmain \n------------------ Differences in errors --------------------\n1,73d0\n< Xpress-MP Hyper Integer Barrier Optimizer Release 16.10.05\n< (c) Copyright Dash Associates 1984-2005\n< Licensed for use by: Carmen Group products\n< -- Unordered text as found by filter 'Load ETABLE' --\n< Load ETABLE _topmodule.aircraft_group, <texttest_tmp_dir>/RD_ib_cas_v8_user/crc/etable/.GPCSetupEtables/aircraft_familly.etab\n< Load ETABLE _topmodule.bad_course_table, <texttest_tmp_dir>/RD_ib_cas_v8_user/ETABLES/05_A320_TEC/crew_bad_course_dates.etab\n< Load ETABLE _topmodule.compl_func_for_crew, <texttest_tmp_dir>/RD_ib_cas_v8_user/ETABLES/05_A320_TEC/compl_func.etab\n< Load ETABLE _topmodule.crew_base1, <texttest_tmp_dir>/RD_ib_cas_v8_user/ETABLES/05_A320_TEC/crew_table.etab\n< Load ETABLE _topmodule.crew_base2, <texttest_tmp_dir>/RD_ib_cas_v8_user/ETABLES/05_A320_TEC/crew_table.etab\n< Load ETABLE _topmodule.crew_base2_days_off, <texttest_tmp_dir>/RD_ib_cas_v8_user/ETABLES/05_A320_TEC/crew_table.etab\n< Load ETABLE _topmodule.crew_base2_start, <texttest_tmp_dir>/RD_ib_cas_v8_user/ETABLES/05_A320_TEC/crew_table.etab\n< Load ETABLE _topmodule.crew_base3, <texttest_tmp_dir>/RD_ib_cas_v8_user/ETABLES/05_A320_TEC/crew_table.etab\n< Load ETABLE _topmodule.crew_base3_days_off, <texttest_tmp_dir>/RD_ib_cas_v8_user/ETABLES/05_A320_TEC/crew_table.etab\n< Load ETABLE _topmodule.crew_base3_start, <texttest_tmp_dir>/RD_ib_cas_v8_user/ETABLES/05_A320_TEC/crew_table.etab\n< Load ETABLE _topmodule.crew_compl_func, <texttest_tmp_dir>/RD_ib_cas_v8_user/ETABLES/05_A320_TEC/compl_func.etab\n< Load ETABLE _topmodule.crew_compl_func2, <texttest_tmp_dir>/RD_ib_cas_v8_user/ETABLES/05_A320_TEC/compl_func.etab\n< Load ETABLE _topmodule.crew_compl_func2_start, <texttest_tmp_dir>/RD_ib_cas_v8_user/ETABLES/05_A320_TEC/compl_func.etab\n< Load ETABLE _topmodule.crew_compl_func_start, <texttest_tmp_dir>/RD_ib_cas_v8_user/ETABLES/05_A320_TEC/compl_func.etab\n< Load ETABLE _topmodule.crew_end_contract2, <texttest_tmp_dir>/RD_ib_cas_v8_user/ETABLES/05_A320_TEC/crew_table.etab\n< Load ETABLE _topmodule.crew_end_license2, <texttest_tmp_dir>/RD_ib_cas_v8_user/ETABLES/05_A320_TEC/crew_table.etab\n< Load ETABLE _topmodule.crew_extra_motherhood_days_off_table, <texttest_tmp_dir>/RD_ib_cas_v8_user/ETABLES/05_A320_TEC/crew_table.etab\n< Load ETABLE _topmodule.crew_fleet, <texttest_tmp_dir>/RD_ib_cas_v8_user/ETABLES/05_A320_TEC/crew_table.etab\n< Load ETABLE _topmodule.crew_fleet_end2, <texttest_tmp_dir>/RD_ib_cas_v8_user/ETABLES/05_A320_TEC/crew_table.etab\n< Load ETABLE _topmodule.crew_fleet_start, <texttest_tmp_dir>/RD_ib_cas_v8_user/ETABLES/05_A320_TEC/crew_table.etab\n< Load ETABLE _topmodule.crew_is_standby_table, <texttest_tmp_dir>/RD_ib_cas_v8_user/ETABLES/05_A320_TEC/compl_func.etab\n< Load ETABLE _topmodule.crew_main_func, <texttest_tmp_dir>/RD_ib_cas_v8_user/ETABLES/05_A320_TEC/crew_table.etab\n< Load ETABLE _topmodule.crew_main_func_start, <texttest_tmp_dir>/RD_ib_cas_v8_user/ETABLES/05_A320_TEC/crew_table.etab\n< Load ETABLE _topmodule.crew_month_max_block_time, <texttest_tmp_dir>/RD_ib_cas_v8_user/ETABLES/05_A320_TEC/crew_table.etab\n< Load ETABLE _topmodule.crew_num_auto1, <texttest_tmp_dir>/RD_ib_cas_v8_user/ETABLES/05_A320_TEC/automatic_tasks_copy.etab\n------------------ Differences in output --------------------\n5,2447d4\n< \n< -- Matador::run --\n< \n< Using Filer to load SubPlan : Timetable/Version/Matador/Matador_All_Crew_Ref_BuddyBids\n< \n< Parser: Reading file /config/crew_categories, section headed by 'crew_cat'\n< Loaded Crew Category : CT\n< Loaded Crew Category : FO\n< Loaded Crew Category : OT\n< Loaded Crew Category : IN\n< Loaded Crew Category : CS\n< Loaded Crew Category : SC\n< Loaded Crew Category : TP\n< Loaded Crew Category : ST\n< Loaded Crew Category : GL\n< Loaded Crew Category : GU\n< Loading rule set Matador_CO_no_roster_cost\n< \n< \n< Filer: Loading subplan-specific files\n< Parser: Reading file /APC_FILES/problems\n< Loaded Crew Vector : 1/1/0//0/1/0/0/0/1/0/0/0\n< Set period of problem to 2001-03-29T00:00 -> 2001-06-03T23:59\n< \n< Parser: Reading file /APC_FILES/rules, section headed by 'SECTION rules'\n< Parser: Reading file /APC_FILES/rules, section headed by '<PARAMETERS>'\n< Parser: Reading file /APC_FILES/rules, section headed by '<SETS>'\n< Parser: Reading file /APC_FILES/bases\n< Parser: Reading file /APC_FILES/flights\n------------------ Missing result in solution --------------------\nSECTION apc_oags Solution_15\n147;APC_SEGMENT_KEY_1;APC_SEGMENT;APC_SEGMENT_TYPE;FLIGHT_CARRIER;FLIGHT_NUMBER;FLIGHT_DEP_AIRP;FLIGHT_ARR_AIRP;FLIGHT_DATE;FLIGHT_DEP_TIME;FLIGHT_BLOCK_TIME;FLIGHT_IATA;CUSTOM_AC_TYPE;FLIGHT_SUFFIX;FLIGHT_LEG_NO;TASK_SUB_CODE;ONWARD_SEGMENT_KEY;FLIGHT_SERVICE_TYPE;BOOKED_CREW_VECTOR_LENGTH;BOOKED_CREW_VECTOR;AC_OWNER;FLIGHT_ONW_FLIGHT_NUM;PASSENGER_TERMINAL_DEPARTURE_STATION;PASSENGER_TERMINAL_ARRIVAL_STATION;FIRST_CLASS_CAP;BUSINESS_CLASS_CAP;ECONOMY_CLASS_CAP;FOURTH_CLASS_CAP;\nSECTION ground_transport Solution_15\n147;APC_SEGMENT_KEY_1;APC_SEGMENT;APC_SEGMENT_TYPE;FLIGHT_CARRIER;FLIGHT_NUMBER;FLIGHT_DEP_AIRP;FLIGHT_ARR_AIRP;FLIGHT_DATE;FLIGHT_DEP_TIME;FLIGHT_BLOCK_TIME;FLIGHT_IATA;CUSTOM_AC_TYPE;FLIGHT_SUFFIX;FLIGHT_LEG_NO;TASK_SUB_CODE;ONWARD_SEGMENT_KEY;FLIGHT_SERVICE_TYPE;BOOKED_CREW_VECTOR_LENGTH;BOOKED_CREW_VECTOR;AC_OWNER;FLIGHT_ONW_FLIGHT_NUM;PASSENGER_TERMINAL_DEPARTURE_STATION;PASSENGER_TERMINAL_ARRIVAL_STATION;FIRST_CLASS_CAP;BUSINESS_CLASS_CAP;ECONOMY_CLASS_CAP;FOURTH_CLASS_CAP;\nSECTION apc_assignments Solution_15\n176;APC_CREW_ID;APC_CREW_SIGNATURE;APC_CREW_TRIP_COUNT;\n178;APC_TRIP_PTR;APC_TRIP_BIT_FIELD;APC_TRIP_ASSIGNED_POS;APC_TRIP_CODES;\n177;192776;AGUILELLA VIVES        ,192776;1;\n179;684;0x0;1;;\n177;294475;AGUIRRE QUINTERO       ,294475;13;\n179;16;0x0;0;;\n179;221;0x0;0;;\n179;1087;0x1;0;;\n179;1088;0x1;0;;\n179;1089;0x1;0;;\n179;1090;0x1;0;;\n179;1091;0x1;0;;\n179;1092;0x1;0;;\n179;1093;0x1;0;;\n179;1094;0x1;0;;\n179;1095;0x1;0;;\n179;903;0x0;0;;\n179;1096;0x1;0;;\n177;024371;AHMED CHAVARINO        ,024371;17;\n179;18;0x0;1;;\n179;1104;0x1;1;;\n179;1105;0x1;1;;\n179;1106;0x1;1;;\n179;1107;0x1;1;;\n179;1108;0x1;1;;\n"
p37
sS'appAbsPath'
p38
S'/carm/proj/matador2/publish/master/Testing/Automatic/matador'
p39
sS'appWriteDir'
p40
S'/users/jensk/texttesttmp/cas.master.i386_linux.paralleljensk22Mar220002'
p41
sS'costName'
p42
S'cost of plan'
p43
sS'briefText'
p44
S'Segmentation fault in ??'
p45
sS'executionHosts'
p46
(lp47
S'circleville'
p48
aS'roosterville'
p49
asS'logStem'
p50
g28
sS'started'
p51
I1
sS'allResults'
p52
(lp53
g7
ag22
a(iperformance
PerformanceFileComparison
p54
(dp55
g9
S'/carm/proj/matador2/publish/master/Testing/Automatic/matador/RD_ib_cas_v8scripts/allcrew_bb_ixg/performance.cas.parallel'
p56
sg12
I0
sS'newPerformance'
p57
F0.10000000000000001
sS'oldPerformance'
p58
F200.83000000000001
sg13
I0
sg14
S'/users/jensk/texttesttmp/cas.master.i386_linux.paralleljensk22Mar220002/RD_ib_cas_v8scripts/allcrew_bb_ixg/performance.cas.parallel'
p59
sg16
g56
sS'percentageChange'
p60
F200730.00000000003
sg18
g59
sS'descriptors'
p61
(dp62
S'goodperf'
p63
S'faster'
p64
sS'badperf'
p65
S'slower'
p66
sS'config'
p67
S'cputime'
p68
ssS'processCount'
p69
I2
sg20
S'performance'
p70
sS'perfComparison'
p71
(iperformance
PerformanceComparison
p72
(dp73
S'percentageChange'
p74
F200730.00000000003
sS'oldPerformance'
p75
F200.83000000000001
sS'newPerformance'
p76
F0.10000000000000001
sS'descriptor'
p77
S'faster'
p78
sbsg11
I3
sbag31
asS'correctResults'
p79
(lp80
g54
asS'lifecycleChange'
p81
S''
p82
sS'failedPrediction'
p83
(iknownbugs
FailedPrediction
p84
(dp85
g3
g4
sg36
S'Program terminated with signal 11, Segmentation fault.\nStack trace from gdb :\n?? \nCarmenResource::inqValue \nCarmenPathManager::getDir \nCarmenPathManager::getDir \nCarmenPathManager::getAllEtabPaths \nRAVEGlobal::RAVEGlobal \nApplicationBase::doInitSingletons \nApplicationStartup::runApplication \ncomponent_main \nmain \n'
p86
sg51
I1
sS'completed'
p87
I0
sg81
g82
sg44
g45
sg46
g47
sbsg87
I1
sS'newResults'
p88
(lp89
sb.