(ioptimization
OptimizationTestComparison
p0
(dp2
S'category'
p3
S'success'
p4
sS'changedResults'
p5
(lp6
sS'missingResults'
p7
(lp8
sS'freeText'
p9
S''
p10
sS'started'
p11
I1
sS'appWriteDir'
p12
S'/users/claesv/texttesttmp/cas.master.i386_linux.parallelclaesv02Jan220046'
p13
sS'costName'
p14
S'cost of plan'
p15
sS'briefText'
p16
g10
sS'executionHosts'
p17
(lp18
S'shelbyville'
p19
aS'abbeville'
p20
asS'logStem'
p21
S'output'
p22
sS'appAbsPath'
p23
S'/carm/proj/matador2/publish/master/Testing/Automatic/matador'
p24
sS'allResults'
p25
(lp26
(icomparefile
FileComparison
p27
(dp28
S'stdFile'
p29
S'/carm/proj/matador2/publish/master/Testing/Automatic/matador/RD_ib_cas_v8scripts/allcrew_bb_ixg/errors.cas'
p30
sS'severity'
p31
I2
sS'differenceId'
p32
I0
sS'differenceCache'
p33
I0
sS'tmpFile'
p34
S'/users/claesv/texttesttmp/cas.master.i386_linux.parallelclaesv02Jan220046/RD_ib_cas_v8scripts/allcrew_bb_ixg/errors.cas'
p35
sS'stdCmpFile'
p36
S'/users/claesv/texttesttmp/cas.master.i386_linux.parallelclaesv02Jan220046/RD_ib_cas_v8scripts/allcrew_bb_ixg/framework_tmp/errors.casorigcmp'
p37
sS'tmpCmpFile'
p38
S'/users/claesv/texttesttmp/cas.master.i386_linux.parallelclaesv02Jan220046/RD_ib_cas_v8scripts/allcrew_bb_ixg/framework_tmp/errors.cascmp'
p39
sS'stem'
p40
S'errors'
p41
sba(icomparefile
FileComparison
p42
(dp43
g29
S'/carm/proj/matador2/publish/master/Testing/Automatic/matador/RD_ib_cas_v8scripts/allcrew_bb_ixg/output.cas'
p44
sg31
I2
sg32
I0
sg33
I0
sg34
S'/users/claesv/texttesttmp/cas.master.i386_linux.parallelclaesv02Jan220046/RD_ib_cas_v8scripts/allcrew_bb_ixg/output.cas'
p45
sg36
S'/users/claesv/texttesttmp/cas.master.i386_linux.parallelclaesv02Jan220046/RD_ib_cas_v8scripts/allcrew_bb_ixg/framework_tmp/output.casorigcmp'
p46
sg38
S'/users/claesv/texttesttmp/cas.master.i386_linux.parallelclaesv02Jan220046/RD_ib_cas_v8scripts/allcrew_bb_ixg/framework_tmp/output.cascmp'
p47
sg40
g22
sba(iperformance
PerformanceFileComparison
p48
(dp49
g29
S'/carm/proj/matador2/publish/master/Testing/Automatic/matador/RD_ib_cas_v8scripts/allcrew_bb_ixg/performance.cas.parallel'
p50
sg32
I0
sS'newPerformance'
p51
F239.19999999999999
sS'oldPerformance'
p52
F247.0
sg33
I0
sg34
S'/users/claesv/texttesttmp/cas.master.i386_linux.parallelclaesv02Jan220046/RD_ib_cas_v8scripts/allcrew_bb_ixg/performance.cas.parallel'
p53
sg36
g50
sS'percentageChange'
p54
F3.260869565217396
sg38
g53
sS'descriptors'
p55
(dp56
S'goodperf'
p57
S'faster'
p58
sS'badperf'
p59
S'slower'
p60
sS'config'
p61
S'cputime'
p62
ssS'processCount'
p63
I2
sg40
S'performance'
p64
sS'perfComparison'
p65
(iperformance
PerformanceComparison
p66
(dp67
S'percentageChange'
p68
F3.260869565217396
sS'oldPerformance'
p69
F247.0
sS'newPerformance'
p70
F239.19999999999999
sS'descriptor'
p71
S'faster'
p72
sbsg31
I3
sba(icomparefile
FileComparison
p73
(dp74
g29
S'/carm/proj/matador2/publish/master/Testing/Automatic/matador/RD_ib_cas_v8scripts/allcrew_bb_ixg/solution.cas'
p75
sg31
I1
sg32
I0
sg33
I0
sg34
S'/users/claesv/texttesttmp/cas.master.i386_linux.parallelclaesv02Jan220046/RD_ib_cas_v8scripts/allcrew_bb_ixg/solution.cas'
p76
sg36
g75
sg38
g76
sg40
S'solution'
p77
sbasS'correctResults'
p78
(lp79
g27
ag42
ag48
ag73
asS'lifecycleChange'
p80
g10
sS'failedPrediction'
p81
NsS'completed'
p82
I1
sS'newResults'
p83
(lp84
sb.