(icomparetest
TestComparison
p1
(dp2
S'changedResults'
p3
(lp4
(icomparefile
FileComparison
p5
(dp6
S'stdFile'
p7
S'/users/geoff/work/master/Testing/Automatic/texttest/TargetApp/Game9952/A04/output.dip'
p8
sS'severity'
p9
I1
sS'diag'
p10
(ilog4py
Logger
p11
(dp12
S'_Logger__Logger_functionname'
p13
S''
sS'_Logger__Logger_module'
p14
S''
sS'_Logger__Logger_linenumber'
p15
I-1
sS'_Logger__Logger_loglevel'
p16
I1
sS'_Logger__Logger_filename'
p17
S''
sS'_Logger__Logger_ndc'
p18
(lp19
sS'_Logger__Logger_classname'
p20
S'filecomparison'
p21
sS'_Logger__Logger_targets'
p22
(lp23
S'sys.stdout'
p24
asS'_Logger__Logger_formatstring'
p25
S'%T %L %C [%F] %x%M'
p26
sS'_Logger__Logger_configfilename'
p27
S''
sS'_Logger__Logger_classid'
p28
NsS'_Logger__Logger_timelaststep'
p29
F1159277018.7775841
sS'_Logger__Logger_useansicodes'
p30
S'FALSE'
p31
sS'_Logger__Logger_timeinit'
p32
F1159277018.7775841
sS'_Logger__Logger_timeformat'
p33
S'%m/%d/%y %H:%M:%S'
p34
sS'_Logger__Logger_rotation'
p35
I0
sbsS'differenceCache'
p36
I01
sS'tmpFile'
p37
S'/users/geoff/texttesttmp/dip.batchgeoff26Sep152338/Game9952/A04/output.dip'
p38
sS'stdCmpFile'
p39
S'/users/geoff/texttesttmp/dip.batchgeoff26Sep152338/Game9952/A04/framework_tmp/output.diporigcmp'
p40
sS'stem'
p41
S'output'
p42
sS'textDiffToolMaxSize'
p43
F-1
sS'previewGenerator'
p44
(iplugins
PreviewGenerator
p45
(dp46
S'cutFromStart'
p47
I30
sS'cutFromEnd'
p48
I0
sS'maxWidth'
p49
I500
sbsS'tmpCmpFile'
p50
S'/users/geoff/texttesttmp/dip.batchgeoff26Sep152338/Game9952/A04/framework_tmp/output.dipcmp'
p51
sS'displayPriority'
p52
I99
sS'textDiffTool'
p53
S'diff'
p54
sbasS'started'
p55
I1
sS'completed'
p56
I1
sS'executionHosts'
p57
(lp58
S'abbeville'
p59
asS'lifecycleChange'
p60
S''
sS'category'
p61
S'badPredict'
p62
sS'missingResults'
p63
(lp64
sS'freeText'
p65
S'No supports are currently allowed in Aeg!'
p66
sg10
(ilog4py
Logger
p67
(dp68
g13
S''
sg14
S''
sg15
I-1
sg16
I1
sg17
S''
sg18
(lp69
sg20
S'testcomparison'
p70
sg22
(lp71
g24
asg25
g26
sg27
S''
sg28
Nsg29
F1159277018.7775841
sg30
g31
sg32
F1159277018.7775841
sg33
g34
sg35
I0
sbsS'briefText'
p72
S'Cannot support from Aeg'
p73
sS'failedPrediction'
p74
(iknownbugs
FailedPrediction
p75
(dp76
g61
g62
sg65
g66
sg55
I0
sg56
I1
sg72
g73
sg57
(lp77
sg60
S''
sbsS'appAbsPath'
p78
S'/users/geoff/work/master/Testing/Automatic/texttest/TargetApp'
p79
sS'allResults'
p80
(lp81
g5
asS'correctResults'
p82
(lp83
sS'appWriteDir'
p84
S'/users/geoff/texttesttmp/dip.batchgeoff26Sep152338'
p85
sS'newResults'
p86
(lp87
sb.