(ioptimization
OptimizationTestComparison
p0
(dp2
S'category'
p3
S'larger'
p4
sS'changedResults'
p5
(lp6
(iperformance
PerformanceFileComparison
p7
(dp8
S'stdFile'
p9
S'/carm/master/Testing/Automatic/picador/Spielscripts/small_res_max_legs_new_glc_syntax/memory.apc.sparc_64'
p10
sS'differenceId'
p11
I1
sS'newPerformance'
p12
F127.2
sS'oldPerformance'
p13
F124.09999999999999
sS'differenceCache'
p14
I1
sS'tmpFile'
p15
S'/users/nightjob/texttesttmp/apc.master.sparc_64.boostnightjob14Dec221117/Spielscripts/small_res_max_legs_new_glc_syntax/memory.apc.sparc_64'
p16
sS'stdCmpFile'
p17
g10
sS'percentageChange'
p18
F2.4979854955680971
sS'tmpCmpFile'
p19
g16
sS'descriptors'
p20
(dp21
S'goodperf'
p22
S'smaller'
p23
sS'badperf'
p24
g4
sS'config'
p25
S'memory'
p26
ssS'processCount'
p27
I1
sS'stem'
p28
g26
sS'perfComparison'
p29
(iperformance
PerformanceComparison
p30
(dp31
S'percentageChange'
p32
F2.4979854955680971
sS'oldPerformance'
p33
F124.09999999999999
sS'newPerformance'
p34
F127.2
sS'descriptor'
p35
S'larger'
p36
sbsS'severity'
p37
I99
sbasS'missingResults'
p38
(lp39
sS'freeText'
p40
S'------------------ Differences in memory(larger) --------------------\n1c1\n< Max Memory  :      124.1 MB\n---\n> Max Memory  :      127.2 MB\n'
p41
sS'started'
p42
I1
sS'appWriteDir'
p43
S'/users/nightjob/texttesttmp/apc.master.sparc_64.boostnightjob14Dec221117'
p44
sS'costName'
p45
S'TOTAL cost'
p46
sS'briefText'
p47
S''
p48
sS'executionHosts'
p49
(lp50
S'sundance'
p51
asS'logStem'
p52
S'status'
p53
sS'appAbsPath'
p54
S'/carm/master/Testing/Automatic/picador'
p55
sS'allResults'
p56
(lp57
g7
a(icomparefile
FileComparison
p58
(dp59
g9
S'/carm/master/Testing/Automatic/picador/Spielscripts/small_res_max_legs_new_glc_syntax/peval.apc.boost'
p60
sg37
I99
sg11
I0
sg14
I0
sg15
S'/users/nightjob/texttesttmp/apc.master.sparc_64.boostnightjob14Dec221117/Spielscripts/small_res_max_legs_new_glc_syntax/peval.apc.boost'
p61
sg17
g60
sg19
g61
sg28
S'peval'
p62
sba(icomparefile
FileComparison
p63
(dp64
g9
S'/carm/master/Testing/Automatic/picador/Spielscripts/small_res_max_legs_new_glc_syntax/peval2.apc.boost'
p65
sg37
I99
sg11
I0
sg14
I0
sg15
S'/users/nightjob/texttesttmp/apc.master.sparc_64.boostnightjob14Dec221117/Spielscripts/small_res_max_legs_new_glc_syntax/peval2.apc.boost'
p66
sg17
S'/users/nightjob/texttesttmp/apc.master.sparc_64.boostnightjob14Dec221117/Spielscripts/small_res_max_legs_new_glc_syntax/framework_tmp/peval2.apc.boostorigcmp'
p67
sg19
S'/users/nightjob/texttesttmp/apc.master.sparc_64.boostnightjob14Dec221117/Spielscripts/small_res_max_legs_new_glc_syntax/framework_tmp/peval2.apc.boostcmp'
p68
sg28
S'peval2'
p69
sba(icomparefile
FileComparison
p70
(dp71
g9
S'/carm/master/Testing/Automatic/picador/Spielscripts/small_res_max_legs_new_glc_syntax/solution.apc'
p72
sg37
I1
sg11
I0
sg14
I0
sg15
S'/users/nightjob/texttesttmp/apc.master.sparc_64.boostnightjob14Dec221117/Spielscripts/small_res_max_legs_new_glc_syntax/solution.apc'
p73
sg17
g72
sg19
g73
sg28
S'solution'
p74
sba(icomparefile
FileComparison
p75
(dp76
g9
S'/carm/master/Testing/Automatic/picador/Spielscripts/small_res_max_legs_new_glc_syntax/status.apc.sparc_64'
p77
sg37
I1
sg11
I0
sg14
I0
sg15
S'/users/nightjob/texttesttmp/apc.master.sparc_64.boostnightjob14Dec221117/Spielscripts/small_res_max_legs_new_glc_syntax/status.apc.sparc_64'
p78
sg17
S'/users/nightjob/texttesttmp/apc.master.sparc_64.boostnightjob14Dec221117/Spielscripts/small_res_max_legs_new_glc_syntax/framework_tmp/status.apc.sparc_64origcmp'
p79
sg19
S'/users/nightjob/texttesttmp/apc.master.sparc_64.boostnightjob14Dec221117/Spielscripts/small_res_max_legs_new_glc_syntax/framework_tmp/status.apc.sparc_64cmp'
p80
sg28
g53
sba(icomparefile
FileComparison
p81
(dp82
g9
S'/carm/master/Testing/Automatic/picador/Spielscripts/small_res_max_legs_new_glc_syntax/warnings.apc'
p83
sg37
I1
sg11
I0
sg14
I0
sg15
S'/users/nightjob/texttesttmp/apc.master.sparc_64.boostnightjob14Dec221117/Spielscripts/small_res_max_legs_new_glc_syntax/warnings.apc'
p84
sg17
S'/users/nightjob/texttesttmp/apc.master.sparc_64.boostnightjob14Dec221117/Spielscripts/small_res_max_legs_new_glc_syntax/framework_tmp/warnings.apcorigcmp'
p85
sg19
S'/users/nightjob/texttesttmp/apc.master.sparc_64.boostnightjob14Dec221117/Spielscripts/small_res_max_legs_new_glc_syntax/framework_tmp/warnings.apccmp'
p86
sg28
S'warnings'
p87
sbasS'correctResults'
p88
(lp89
g58
ag63
ag70
ag75
ag81
asS'lifecycleChange'
p90
g48
sS'failedPrediction'
p91
NsS'completed'
p92
I1
sS'newResults'
p93
(lp94
sb.