(iplugins
TestState
p1
(dp2
S'category'
p3
S'strange behaviour'
p4
sS'started'
p5
I0
sS'completed'
p6
I1
sS'briefText'
p7
S'don\'t get it'
sS'freeText'
p8
S'Lots of junk appeared.\nAnd then we died.\n'
sS'executionHosts'
p9
(lp10
sb.
