(icomparetest
TestComparison
p1
(dp2
S'category'
p3
S'failure'
p4
sS'changedResults'
p5
(lp6
(icomparefile
FileComparison
p7
(dp8
S'stdFile'
p9
S'/users/geoff/work/master/Testing/Automatic/texttest/TargetApp/Game9952/A02/output.dip'
p10
sS'severity'
p11
I1
sS'diag'
p12
(ilog4py
Logger
p13
(dp14
S'_Logger__Logger_functionname'
p15
S''
sS'_Logger__Logger_module'
p16
S''
sS'_Logger__Logger_linenumber'
p17
I-1
sS'_Logger__Logger_loglevel'
p18
I1
sS'_Logger__Logger_filename'
p19
S''
sS'_Logger__Logger_ndc'
p20
(lp21
sS'_Logger__Logger_classname'
p22
S'filecomparison'
p23
sS'_Logger__Logger_targets'
p24
(lp25
S'sys.stdout'
p26
asS'_Logger__Logger_formatstring'
p27
S'%T %L %C [%F] %x%M'
p28
sS'_Logger__Logger_configfilename'
p29
S''
sS'_Logger__Logger_classid'
p30
NsS'_Logger__Logger_timelaststep'
p31
F1159277018.7775841
sS'_Logger__Logger_useansicodes'
p32
S'FALSE'
p33
sS'_Logger__Logger_timeinit'
p34
F1159277018.7775841
sS'_Logger__Logger_timeformat'
p35
S'%m/%d/%y %H:%M:%S'
p36
sS'_Logger__Logger_rotation'
p37
I0
sbsS'differenceCache'
p38
I01
sS'tmpFile'
p39
S'/users/geoff/texttesttmp/dip.batchgeoff26Sep152338/Game9952/A02/output.dip'
p40
sS'stdCmpFile'
p41
S'/users/geoff/texttesttmp/dip.batchgeoff26Sep152338/Game9952/A02/framework_tmp/output.diporigcmp'
p42
sS'stem'
p43
S'output'
p44
sS'textDiffToolMaxSize'
p45
F-1
sS'previewGenerator'
p46
(iplugins
PreviewGenerator
p47
(dp48
S'cutFromStart'
p49
I30
sS'cutFromEnd'
p50
I0
sS'maxWidth'
p51
I500
sbsS'tmpCmpFile'
p52
S'/users/geoff/texttesttmp/dip.batchgeoff26Sep152338/Game9952/A02/framework_tmp/output.dipcmp'
p53
sS'displayPriority'
p54
I99
sS'textDiffTool'
p55
S'diff'
p56
sbasS'missingResults'
p57
(lp58
sS'freeText'
p59
S'------------------ Differences in output --------------------\n18c18\n< Germany: Hol HOLD                  (*dislodged*)\n---\n> Germany: Hol HOLD                  (*was dislodged*)\n'
p60
sS'started'
p61
I1
sg12
(ilog4py
Logger
p62
(dp63
g15
S''
sg16
S''
sg17
I-1
sg18
I1
sg19
S''
sg20
(lp64
sg22
S'testcomparison'
p65
sg24
(lp66
g26
asg27
g28
sg29
S''
sg30
Nsg31
F1159277018.7775841
sg32
g33
sg34
F1159277018.7775841
sg35
g36
sg37
I0
sbsS'completed'
p67
I1
sS'briefText'
p68
S''
sS'executionHosts'
p69
(lp70
S'abbeville'
p71
asS'appAbsPath'
p72
S'/users/geoff/work/master/Testing/Automatic/texttest/TargetApp'
p73
sS'allResults'
p74
(lp75
g7
asS'appWriteDir'
p76
S'/users/geoff/texttesttmp/dip.batchgeoff26Sep152338'
p77
sS'correctResults'
p78
(lp79
sS'lifecycleChange'
p80
S''
sS'failedPrediction'
p81
NsS'newResults'
p82
(lp83
sb.