(iplugins
TestState
p1
(dp2
S'category'
p3
S'unrunnable'
p4
sS'started'
p5
I0
sS'completed'
p6
I1
sS'briefText'
p7
S'UNRUNNABLE'
sS'freeText'
p8
S'This test was not able to be run.\nThere are many deep and involved reasons for this, too many to mention here...\n'
sb.
