(ioptimization
OptimizationTestComparison
p0
(dp2
S'category'
p3
S'success'
p4
sS'changedResults'
p5
(lp6
sS'missingResults'
p7
(lp8
sS'freeText'
p9
S''
p10
sS'started'
p11
I1
sS'appWriteDir'
p12
S'/users/hamid/texttesttmp/apc.master.parisc_2_0hamid20Dec220033'
p13
sS'costName'
p14
S'TOTAL cost'
p15
sS'briefText'
p16
g10
sS'executionHosts'
p17
(lp18
S'haiphong'
p19
asS'logStem'
p20
S'status'
p21
sS'appAbsPath'
p22
S'/carm/proj/matador2/publish/master/Testing/Automatic/picador'
p23
sS'allResults'
p24
(lp25
(iperformance
PerformanceFileComparison
p26
(dp27
S'stdFile'
p28
S'/carm/proj/matador2/publish/master/Testing/Automatic/picador/Spielscripts/small_generation_cg/memory.apc.parisc_2_0'
p29
sS'differenceId'
p30
I0
sS'newPerformance'
p31
F44.700000000000003
sS'oldPerformance'
p32
F45.100000000000001
sS'differenceCache'
p33
I0
sS'tmpFile'
p34
S'/users/hamid/texttesttmp/apc.master.parisc_2_0hamid20Dec220033/Spielscripts/small_generation_cg/memory.apc.parisc_2_0'
p35
sS'stdCmpFile'
p36
g29
sS'percentageChange'
p37
F0.89485458612975055
sS'tmpCmpFile'
p38
g35
sS'descriptors'
p39
(dp40
S'goodperf'
p41
S'smaller'
p42
sS'badperf'
p43
S'larger'
p44
sS'config'
p45
S'memory'
p46
ssS'processCount'
p47
I1
sS'stem'
p48
g46
sS'perfComparison'
p49
(iperformance
PerformanceComparison
p50
(dp51
S'percentageChange'
p52
F0.89485458612975055
sS'oldPerformance'
p53
F45.100000000000001
sS'newPerformance'
p54
F44.700000000000003
sS'descriptor'
p55
S'smaller'
p56
sbsS'severity'
p57
I99
sba(icomparefile
FileComparison
p58
(dp59
g28
S'/carm/proj/matador2/publish/master/Testing/Automatic/picador/Spielscripts/small_generation_cg/solution.apc'
p60
sg57
I1
sg30
I0
sg33
I0
sg34
S'/users/hamid/texttesttmp/apc.master.parisc_2_0hamid20Dec220033/Spielscripts/small_generation_cg/solution.apc'
p61
sg36
g60
sg38
g61
sg48
S'solution'
p62
sba(icomparefile
FileComparison
p63
(dp64
g28
S'/carm/proj/matador2/publish/master/Testing/Automatic/picador/Spielscripts/small_generation_cg/status.apc.parisc_2_0'
p65
sg57
I1
sg30
I0
sg33
I0
sg34
S'/users/hamid/texttesttmp/apc.master.parisc_2_0hamid20Dec220033/Spielscripts/small_generation_cg/status.apc.parisc_2_0'
p66
sg36
S'/users/hamid/texttesttmp/apc.master.parisc_2_0hamid20Dec220033/Spielscripts/small_generation_cg/framework_tmp/status.apc.parisc_2_0origcmp'
p67
sg38
S'/users/hamid/texttesttmp/apc.master.parisc_2_0hamid20Dec220033/Spielscripts/small_generation_cg/framework_tmp/status.apc.parisc_2_0cmp'
p68
sg48
g21
sba(icomparefile
FileComparison
p69
(dp70
g28
S'/carm/proj/matador2/publish/master/Testing/Automatic/picador/Spielscripts/small_generation_cg/warnings.apc'
p71
sg57
I1
sg30
I0
sg33
I0
sg34
S'/users/hamid/texttesttmp/apc.master.parisc_2_0hamid20Dec220033/Spielscripts/small_generation_cg/warnings.apc'
p72
sg36
S'/users/hamid/texttesttmp/apc.master.parisc_2_0hamid20Dec220033/Spielscripts/small_generation_cg/framework_tmp/warnings.apcorigcmp'
p73
sg38
S'/users/hamid/texttesttmp/apc.master.parisc_2_0hamid20Dec220033/Spielscripts/small_generation_cg/framework_tmp/warnings.apccmp'
p74
sg48
S'warnings'
p75
sbasS'correctResults'
p76
(lp77
g26
ag58
ag63
ag69
asS'lifecycleChange'
p78
g10
sS'failedPrediction'
p79
NsS'completed'
p80
I1
sS'newResults'
p81
(lp82
sb.