(iqueuesystem
Abandoned
p0
(dp1
S'category'
p2
S'abandoned'
p3
sS'freeText'
p4
S'Could not delete APC test-case small_generation_cg               in queuesystem: have abandoned it'
p5
sS'started'
p6
I0
sS'completed'
p7
I1
sS'lifecycleChange'
p8
S''
p9
sS'briefText'
p10
S'job deletion failed'
p11
sS'executionHosts'
p12
(lp13
sb.