(ioptimization
OptimizationTestComparison
p1
(dp2
S'category'
p3
S'success'
p4
sS'changedResults'
p5
(lsS'freeText'
p6
S''
sS'started'
p7
I1
sS'diag'
p8
(ilog4py
Logger
(dp9
S'_Logger__Logger_functionname'
p10
S''
sS'_Logger__Logger_module'
p11
S''
sS'_Logger__Logger_linenumber'
p12
I-1
sS'_Logger__Logger_classname'
p13
S'testcomparison'
p14
sS'_Logger__Logger_targets'
p15
(lp16
S'sys.stdout'
p17
asS'_Logger__Logger_formatstring'
p18
S'%T %L %C [%F] %x%M'
p19
sS'_Logger__Logger_filename'
p20
S''
sS'_Logger__Logger_classid'
p21
NsS'_Logger__Logger_timelaststep'
p22
F1135029816.9002769
sS'_Logger__Logger_configfilename'
p23
S''
sS'_Logger__Logger_ndc'
p24
(lsS'_Logger__Logger_useansicodes'
p25
S'FALSE'
p26
sS'_Logger__Logger_timeinit'
p27
F1135029816.9002769
sS'_Logger__Logger_loglevel'
p28
I1
sS'_Logger__Logger_timeformat'
p29
S'%m/%d/%y %H:%M:%S'
p30
sS'_Logger__Logger_rotation'
p31
I0
sbsS'costName'
p32
S'TOTAL cost'
sS'briefText'
p33
S''
sS'executionHosts'
p34
(lp35
S'haiphong'
p36
asS'logStem'
p37
S'status'
p38
sS'appAbsPath'
p39
S'/carm/master/Testing/Automatic/picador'
sS'allResults'
p40
(lp41
(icomparetest
FileComparison
p42
(dp43
S'stdFile'
p44
S'/carm/master/Testing/Automatic/picador/RD_lh_pac/small_A320_COC_boost/error.apc'
p45
sS'severity'
p46
I1
sS'differenceId'
p47
I0
sS'tmpFile'
p48
S'/users/nightjob/texttesttmp/apc.master.parisc_2_0nightjob19Dec220151/RD_lh_pac/small_A320_COC_boost/error.apc'
p49
sS'stdCmpFile'
p50
g45
sS'stem'
p51
S'error'
p52
sS'tmpCmpFile'
p53
g49
sba(iperformance
PerformanceFileComparison
p54
(dp55
g44
S'/carm/master/Testing/Automatic/picador/RD_lh_pac/small_A320_COC_boost/memory.apc.parisc_2_0'
p56
sg47
I0
sS'newPerformance'
p57
F73.299999999999997
sg50
g56
sS'oldPerformance'
p58
F72.900000000000006
sg48
S'/users/nightjob/texttesttmp/apc.master.parisc_2_0nightjob19Dec220151/RD_lh_pac/small_A320_COC_boost/memory.apc.parisc_2_0'
p59
sg53
g59
sg51
S'memory'
p60
sS'percentageChange'
p61
F0.54869684499312954
sg8
(ilog4py
Logger
(dp62
g10
S''
sg11
S''
sg12
I-1
sg13
S'performance'
p63
sg15
(lp64
g17
asg18
g19
sg20
S''
sg21
Nsg22
F1135029816.9002769
sg23
S''
sg24
(lsg25
g26
sg27
F1135029816.9002769
sg28
I1
sg29
g30
sg31
I0
sbsS'processCount'
p65
I1
sS'descriptors'
p66
(dp67
S'goodperf'
p68
S'smaller'
p69
sS'badperf'
p70
S'larger'
p71
sS'config'
p72
g60
ssg46
I99
sba(icomparetest
FileComparison
p73
(dp74
g44
S'/carm/master/Testing/Automatic/picador/RD_lh_pac/small_A320_COC_boost/peval.apc'
p75
sg46
I99
sg47
I0
sg48
S'/users/nightjob/texttesttmp/apc.master.parisc_2_0nightjob19Dec220151/RD_lh_pac/small_A320_COC_boost/peval.apc'
p76
sg50
g75
sg51
S'peval'
p77
sg53
g76
sba(icomparetest
FileComparison
p78
(dp79
g44
S'/carm/master/Testing/Automatic/picador/RD_lh_pac/small_A320_COC_boost/peval2.apc'
sg46
I99
sg47
I0
sg48
S'/users/nightjob/texttesttmp/apc.master.parisc_2_0nightjob19Dec220151/RD_lh_pac/small_A320_COC_boost/peval2.apc'
sg50
S'/users/nightjob/texttesttmp/apc.master.parisc_2_0nightjob19Dec220151/RD_lh_pac/small_A320_COC_boost/framework_tmp/peval2.apcorigcmp'
sg51
S'peval2'
p80
sg53
S'/users/nightjob/texttesttmp/apc.master.parisc_2_0nightjob19Dec220151/RD_lh_pac/small_A320_COC_boost/framework_tmp/peval2.apccmp'
sba(icomparetest
FileComparison
p81
(dp82
g44
S'/carm/master/Testing/Automatic/picador/RD_lh_pac/small_A320_COC_boost/solution.apc.parisc_2_0'
p83
sg46
I1
sg47
I0
sg48
S'/users/nightjob/texttesttmp/apc.master.parisc_2_0nightjob19Dec220151/RD_lh_pac/small_A320_COC_boost/solution.apc.parisc_2_0'
p84
sg50
g83
sg51
S'solution'
p85
sg53
g84
sba(icomparetest
FileComparison
p86
(dp87
g44
S'/carm/master/Testing/Automatic/picador/RD_lh_pac/small_A320_COC_boost/status.apc.parisc_2_0'
sg46
I1
sg47
I0
sg48
S'/users/nightjob/texttesttmp/apc.master.parisc_2_0nightjob19Dec220151/RD_lh_pac/small_A320_COC_boost/status.apc.parisc_2_0'
sg50
S'/users/nightjob/texttesttmp/apc.master.parisc_2_0nightjob19Dec220151/RD_lh_pac/small_A320_COC_boost/framework_tmp/status.apc.parisc_2_0origcmp'
sg51
g38
sg53
S'/users/nightjob/texttesttmp/apc.master.parisc_2_0nightjob19Dec220151/RD_lh_pac/small_A320_COC_boost/framework_tmp/status.apc.parisc_2_0cmp'
sba(icomparetest
FileComparison
p88
(dp89
g44
S'/carm/master/Testing/Automatic/picador/RD_lh_pac/small_A320_COC_boost/warnings.apc'
sg46
I1
sg47
I0
sg48
S'/users/nightjob/texttesttmp/apc.master.parisc_2_0nightjob19Dec220151/RD_lh_pac/small_A320_COC_boost/warnings.apc'
sg50
S'/users/nightjob/texttesttmp/apc.master.parisc_2_0nightjob19Dec220151/RD_lh_pac/small_A320_COC_boost/framework_tmp/warnings.apcorigcmp'
sg51
S'warnings'
p90
sg53
S'/users/nightjob/texttesttmp/apc.master.parisc_2_0nightjob19Dec220151/RD_lh_pac/small_A320_COC_boost/framework_tmp/warnings.apccmp'
sbasS'appWriteDir'
p91
S'/users/nightjob/texttesttmp/apc.master.parisc_2_0nightjob19Dec220151'
sS'correctResults'
p92
(lp93
g42
ag54
ag73
ag78
ag81
ag86
ag88
asS'lifecycleChange'
p94
S''
sS'failedPrediction'
p95
NsS'completed'
p96
I1
sS'newResults'
p97
(lsb.