(iplugins
Unrunnable
p0
(dp1
S'category'
p2
S'unrunnable'
p3
sS'freeText'
p4
S'Failed to build ruleset STD+EXP+JAR_no_reference\nPYTHONHOME=/usr/local/sparcv9\nPATH=/usr/local/sparcv9/bin:/carm/user_and_tmp/carmen_10/pic_user//bin/sparc_64:/carm/user_and_tmp/carmen_10/pic_user//bin:/carm/proj/matador2/publish/master/Products/standard_gpc/CARMSYS/bin/sparc_64:/carm/proj/matador2/publish/master/Products/standard_gpc/CARMSYS/bin:/carm/proj/matador2/publish/master/Products/standard_gpc/CARMSYS/etc/sparc_64:/carm/proj/matador2/publish/master/Products/standard_gpc/CARMSYS/etc:/usr/xpg4/bin:/usr/local/bin/carmen/master:/usr/vacpp/bin:/opt/aCC/bin:/opt/SUNWspr\no_9/bin:/users/hamid/texttesttmp/apc.master.sparc_64hamid15Dec220949/lh_bascripts/large_gap_daily:/usr/local/ODI/OS5.1/bin:/usr/local/share/sge/bin/sol-sparc64:/usr/local/lsf5/5.1/sparc-sol7-64/bin:/usr/local/lsf5/5.1/sparc-sol7-64/etc:/opt/SUNWspro_11/bin:/users/hamid:/users/hamid/bin:/usr/local/bin:/opt/gnu/bin:/usr/sfw/bin:/opt/sfw/bin:/usr/openwin/bin:/opt/SUNWmfwm/bin:/usr/bin:/bin:/usr/ccs/bin:/usr/ucb:/usr/local/etc:/usr/sbin:/usr/dt/bin:.:/usr/local/ODI/OSDBC2.0/bin:/opt/Oracle/u1/app/or\nacle/product/8.1.5/bin:/carm/rational/releases/PurifyPlus.2003a.06.13.FixPack.0177/sun4_solaris2/bin:/carm/proj/3pp/ddts/sol2x_bin:/users/rastjo/Soft/fvwm2/sparc_64/bin:/users/rastjo/Soft/fvwm2/sparc_64/bin\nBuild Rave program STD+EXP+JAR_no_reference started on turin, 15 December 22:10\nGenerating code... done.\nBuilding for apc on localhost - 9 files out of 9 need to be compiled\nCompiling... ld: elf error: file /carm/proj/matador2/publish/master/Products/standard_gpc/CARMSYS/data/apc/sparc_64/libapc.a: elf_begin: Format error: archive member truncated\nld: fatal: library -lapc: not found\nld: fatal: File processing errors. No output written to /carm/proj/matador2/publish/master/Products/standard_gpc/CARMSYS/lh_bascripts_tmp.apc.sparc_64/compile/APC/sparc_64_opt/STD+EXP+JAR_no_reference\n'
p5
sS'started'
p6
I0
sS'completed'
p7
I1
sS'lifecycleChange'
p8
S''
p9
sS'briefText'
p10
S'Ruleset build failed'
p11
sS'executionHosts'
p12
(lp13
sb.