(iplugins
TestState
p0
(dp1
S'category'
p2
S'unrunnable'
p3
sS'freeText'
p4
S'Failed to submit to SGE (qsub: No such file or directory)'
p5
sS'started'
p6
I0
sS'completed'
p7
I1
sS'lifecycleChange'
p8
S''
p9
sS'briefText'
p10
S'UNRUNNABLE'
p11
sS'executionHosts'
p12
(lp13
sb.