(itexttestlib.default.comparetest
TestComparison
p1
(dp2
S'category'
p3
S'larger(othermemvalue)'
p4
sS'changedResults'
p5
(lp6
(itexttestlib.default.performance
PerformanceFileComparison
p7
(dp8
S'freeTextBody'
p9
S'1c1\n< Max Memory  :      42.3 MB\n---\n> Max Othermemvalue  :      47.8 MB\n'
p10
sS'tmpFile'
p11
S'/carm/proj/texttest-tmp/geoff/texttest.24Oct164655.43001/texttest/TestSelf/MemoryTests/Console/MemoryDerivatives/texttesttmp/console.version.24Oct164658.43154/mem.version/Suite/Failures/othermemvalue.mem'
p12
sS'severity'
p13
I99
sS'differenceCache'
p14
I01
sS'stdFile'
p15
S'/carm/proj/texttest-tmp/geoff/texttest.24Oct164655.43001/texttest/TestSelf/MemoryTests/Console/MemoryDerivatives/TargetApp/Suite/Failures/othermemvalue.mem.version'
p16
sS'stdCmpFile'
p17
g16
sS'textDiffToolMaxSize'
p18
F-1
sS'previewGenerator'
p19
(itexttestlib.plugins
PreviewGenerator
p20
(dp21
S'maxWidth'
p22
I500
sS'maxLength'
p23
I30
sbsS'tmpCmpFile'
p24
g12
sS'textDiffTool'
p25
S'diff'
p26
sS'perfComparison'
p27
(itexttestlib.default.performance
PerformanceComparison
p28
(dp29
S'percentageChange'
p30
F13.002364066193856
sS'oldPerformance'
p31
F42.299999999999997
sS'newPerformance'
p32
F47.799999999999997
sS'descriptor'
p33
g4
sbsS'displayPriority'
p34
I99
sS'binaryFile'
p35
I00
sS'stem'
p36
S'othermemvalue'
p37
sbasS'missingResults'
p38
(lp39
sS'freeText'
p40
S'---------- Differences in othermemvalue(larger(othermemvalue)) ----------\n1c1\n< Max Memory  :      42.3 MB\n---\n> Max Othermemvalue  :      47.8 MB\n'
p41
sS'started'
p42
I1
sS'failedPrediction'
p43
NsS'completed'
p44
I1
sS'briefText'
p45
S''
sS'executionHosts'
p46
(lp47
S'crownpoint'
p48
asS'observers'
p49
(lp50
sS'appAbsPath'
p51
S'/carm/proj/texttest-tmp/geoff/texttest.24Oct164655.43001/texttest/TestSelf/MemoryTests/Console/MemoryDerivatives/TargetApp'
p52
sS'allResults'
p53
(lp54
(itexttestlib.default.performance
PerformanceFileComparison
p55
(dp56
g9
Nsg11
S'/carm/proj/texttest-tmp/geoff/texttest.24Oct164655.43001/texttest/TestSelf/MemoryTests/Console/MemoryDerivatives/texttesttmp/console.version.24Oct164658.43154/mem.version/Suite/Failures/memory.mem'
p57
sg13
I99
sg14
I00
sg15
S'/carm/proj/texttest-tmp/geoff/texttest.24Oct164655.43001/texttest/TestSelf/MemoryTests/Console/MemoryDerivatives/TargetApp/Suite/Failures/memory.mem'
p58
sg17
g58
sg18
F-1
sg19
(itexttestlib.plugins
PreviewGenerator
p59
(dp60
g22
I500
sg23
I30
sbsg24
g57
sg25
g26
sg27
(itexttestlib.default.performance
PerformanceComparison
p61
(dp62
g30
F13.002364066193856
sg31
F42.299999999999997
sg32
F47.799999999999997
sg33
S'larger'
p63
sbsg34
I99
sg35
I00
sg36
S'memory'
p64
sbag7
a(itexttestlib.default.comparefile
FileComparison
p65
(dp66
g9
Nsg11
S'/carm/proj/texttest-tmp/geoff/texttest.24Oct164655.43001/texttest/TestSelf/MemoryTests/Console/MemoryDerivatives/texttesttmp/console.version.24Oct164658.43154/mem.version/Suite/Failures/output.mem'
p67
sg13
I1
sg14
I0
sg15
S'/carm/proj/texttest-tmp/geoff/texttest.24Oct164655.43001/texttest/TestSelf/MemoryTests/Console/MemoryDerivatives/TargetApp/Suite/Failures/output.mem'
p68
sg17
S'/carm/proj/texttest-tmp/geoff/texttest.24Oct164655.43001/texttest/TestSelf/MemoryTests/Console/MemoryDerivatives/texttesttmp/console.version.24Oct164658.43154/mem.version/Suite/Failures/framework_tmp/output.memorigcmp'
p69
sg18
F-1
sg19
(itexttestlib.plugins
PreviewGenerator
p70
(dp71
g22
I500
sg23
I30
sbsg24
S'/carm/proj/texttest-tmp/geoff/texttest.24Oct164655.43001/texttest/TestSelf/MemoryTests/Console/MemoryDerivatives/texttesttmp/console.version.24Oct164658.43154/mem.version/Suite/Failures/framework_tmp/output.memcmp'
p72
sg25
g26
sg34
I99
sg35
I00
sg36
S'output'
p73
sbasS'passSelf'
p74
I00
sS'correctResults'
p75
(lp76
g55
ag65
asS'lifecycleChange'
p77
S'complete'
p78
sS'appWriteDir'
p79
S'/carm/proj/texttest-tmp/geoff/texttest.24Oct164655.43001/texttest/TestSelf/MemoryTests/Console/MemoryDerivatives/texttesttmp/console.version.24Oct164658.43154'
p80
sS'newResults'
p81
(lp82
sb.