(iperformance
PerformanceTestComparison
p1
(dp2
S'category'
p3
S'failure'
p4
sS'changedResults'
p5
(lp6
(icomparetest
FileComparison
p7
(dp8
S'stdFile'
p9
S'/users/fakeuser/work/master/Testing/Automatic/texttest/carmen/matador/TargetApp/ArtificialUser/generate_in_subperiod/output.cas.10'
p10
sS'severity'
p11
I1
sS'differenceId'
p12
I1
sS'tmpFile'
p13
S'/users/fakeuser/work/master/Testing/Automatic/texttest/carmen/matador/texttesttmp/cas.10fakeuser28Sep093112/ArtificialUser/generate_in_subperiod/output.cas.10'
p14
sS'stdCmpFile'
p15
S'/users/fakeuser/work/master/Testing/Automatic/texttest/carmen/matador/texttesttmp/cas.10fakeuser28Sep093112/ArtificialUser/generate_in_subperiod/framework_tmp/output.cas.10origcmp'
p16
sS'stem'
p17
S'output'
p18
sS'tmpCmpFile'
p19
S'/users/fakeuser/work/master/Testing/Automatic/texttest/carmen/matador/texttesttmp/cas.10fakeuser28Sep093112/ArtificialUser/generate_in_subperiod/framework_tmp/output.cas.10cmp'
p20
sbasS'freeText'
p21
S'------------------ Differences in output --------------------\n71c71\n<   Total cost of plan..................................: 154585\n---\n>   Total cost of plan..................................: 132585\n210c210\n<   Total cost of plan..................................: 154143\n---\n>   Total cost of plan..................................: 132143\n899c899\n<   Total cost of plan..................................: 115404\n---\n>   Total cost of plan..................................: 113204\n1316c1316\n<   Total cost of plan..................................: 101905\n---\n>   Total cost of plan..................................: 111905\n1455c1455\n<   Total cost of plan..................................: 101805\n---\n>   Total cost of plan..................................: 111805\n1594c1594\n<   Total cost of plan..................................: 101505\n---\n>   Total cost of plan..................................: 111505\n1597c1597\n<   Total cost of unassigned slots......................: 101000\n---\n>   Total cost of unassigned slots......................: 111000\n1620c1620\n<   Number of slots (unassigned)........................: 1010\n'
p22
sS'started'
p23
I1
sS'diag'
p24
(ilog4py
Logger
p25
(dp26
S'_Logger__Logger_functionname'
p27
S''
sS'_Logger__Logger_module'
p28
S''
sS'_Logger__Logger_linenumber'
p29
I-1
sS'_Logger__Logger_classname'
p30
S'testcomparison'
p31
sS'_Logger__Logger_targets'
p32
(lp33
S'sys.stdout'
p34
asS'_Logger__Logger_formatstring'
p35
S'%T %L %C [%F] %x%M'
p36
sS'_Logger__Logger_filename'
p37
S''
sS'_Logger__Logger_classid'
p38
NsS'_Logger__Logger_timelaststep'
p39
F1096356672.428077
sS'_Logger__Logger_configfilename'
p40
S''
sS'_Logger__Logger_useansicodes'
p41
S'FALSE'
p42
sS'_Logger__Logger_timeinit'
p43
F1096356672.428077
sS'_Logger__Logger_loglevel'
p44
I1
sS'_Logger__Logger_timeformat'
p45
S'%m/%d/%y %H:%M:%S'
p46
sS'_Logger__Logger_ndc'
p47
(lp48
sbsS'completed'
p49
I1
sS'briefText'
p50
S''
sS'executionHosts'
p51
(lp52
sS'appAbsPath'
p53
S'/users/fakeuser/work/master/Testing/Automatic/texttest/carmen/matador/TargetApp'
p54
sS'allResults'
p55
(lp56
(icomparetest
FileComparison
p57
(dp58
g9
S'/users/fakeuser/work/master/Testing/Automatic/texttest/carmen/matador/TargetApp/ArtificialUser/generate_in_subperiod/errors.cas'
p59
sg11
I1
sg12
I0
sg13
S'/users/fakeuser/work/master/Testing/Automatic/texttest/carmen/matador/texttesttmp/cas.10fakeuser28Sep093112/ArtificialUser/generate_in_subperiod/errors.cas'
p60
sg15
S'/users/fakeuser/work/master/Testing/Automatic/texttest/carmen/matador/texttesttmp/cas.10fakeuser28Sep093112/ArtificialUser/generate_in_subperiod/framework_tmp/errors.casorigcmp'
p61
sg17
S'errors'
p62
sg19
S'/users/fakeuser/work/master/Testing/Automatic/texttest/carmen/matador/texttesttmp/cas.10fakeuser28Sep093112/ArtificialUser/generate_in_subperiod/framework_tmp/errors.cascmp'
p63
sbag7
a(icomparetest
FileComparison
p64
(dp65
g9
S'/users/fakeuser/work/master/Testing/Automatic/texttest/carmen/matador/TargetApp/ArtificialUser/generate_in_subperiod/solution.cas'
p66
sg11
I99
sg12
I0
sg13
S'/users/fakeuser/work/master/Testing/Automatic/texttest/carmen/matador/texttesttmp/cas.10fakeuser28Sep093112/ArtificialUser/generate_in_subperiod/solution.cas'
p67
sg15
g66
sg17
S'solution'
p68
sg19
g67
sbasS'appWriteDir'
p69
S'/users/fakeuser/work/master/Testing/Automatic/texttest/carmen/matador/texttesttmp/cas.10fakeuser28Sep093112'
sS'correctResults'
p70
(lp71
g57
ag64
asS'lifecycleChange'
p72
S''
sS'failedPrediction'
p73
NsS'newResults'
p74
(lp75
sb.
