(iperformance
PerformanceTestComparison
p1
(dp2
S'category'
p3
S'failure'
p4
sS'changedResults'
p5
(lp6
(icomparetest
FileComparison
p7
(dp8
S'stdFile'
p9
S'/users/fakeuser/work/master/Testing/Automatic/texttest/carmen/matador/TargetApp/ArtificialUser/generate_in_subperiod/output.cas.10'
p10
sS'severity'
p11
I1
sS'differenceId'
p12
I1
sS'tmpFile'
p13
S'/users/fakeuser/work/master/Testing/Automatic/texttest/carmen/matador/texttesttmp/cas.10fakeuser28Sep093112/ArtificialUser/generate_in_subperiod/output.cas.10'
p14
sS'stdCmpFile'
p15
S'/users/fakeuser/work/master/Testing/Automatic/texttest/carmen/matador/texttesttmp/cas.10fakeuser28Sep093112/ArtificialUser/generate_in_subperiod/framework_tmp/output.cas.10origcmp'
p16
sS'stem'
p17
S'output'
p18
sS'tmpCmpFile'
p19
S'/users/fakeuser/work/master/Testing/Automatic/texttest/carmen/matador/texttesttmp/cas.10fakeuser28Sep093112/ArtificialUser/generate_in_subperiod/framework_tmp/output.cas.10cmp'
p20
sbasS'missingResults'
p21
(lsS'freeText'
p22
S'------------------ Differences in output --------------------\n71c71\n<   Total cost of plan..................................: 154585\n---\n>   Total cost of plan..................................: 132585\n210c210\n<   Total cost of plan..................................: 154143\n---\n>   Total cost of plan..................................: 132143\n899c899\n<   Total cost of plan..................................: 115404\n---\n>   Total cost of plan..................................: 113204\n1316c1316\n<   Total cost of plan..................................: 101905\n---\n>   Total cost of plan..................................: 111905\n1455c1455\n<   Total cost of plan..................................: 101805\n---\n>   Total cost of plan..................................: 111805\n1594c1594\n<   Total cost of plan..................................: 101505\n---\n>   Total cost of plan..................................: 111505\n1597c1597\n<   Total cost of unassigned slots......................: 101000\n---\n>   Total cost of unassigned slots......................: 111000\n1620c1620\n<   Number of slots (unassigned)........................: 1010\n'
p23
sS'appAbsPath'
p24
S'/users/fakeuser/work/master/Testing/Automatic/texttest/carmen/matador/TargetApp'
p25
sS'diag'
p26
(ilog4py
Logger
p27
(dp28
S'_Logger__Logger_functionname'
p29
S''
sS'_Logger__Logger_module'
p30
S''
sS'_Logger__Logger_linenumber'
p31
I-1
sS'_Logger__Logger_classname'
p32
S'testcomparison'
p33
sS'_Logger__Logger_targets'
p34
(lp35
S'sys.stdout'
p36
asS'_Logger__Logger_formatstring'
p37
S'%T %L %C [%F] %x%M'
p38
sS'_Logger__Logger_filename'
p39
S''
sS'_Logger__Logger_classid'
p40
NsS'_Logger__Logger_timelaststep'
p41
F1096356672.428077
sS'_Logger__Logger_configfilename'
p42
S''
sS'_Logger__Logger_useansicodes'
p43
S'FALSE'
p44
sS'_Logger__Logger_timeinit'
p45
F1096356672.428077
sS'_Logger__Logger_loglevel'
p46
I1
sS'_Logger__Logger_timeformat'
p47
S'%m/%d/%y %H:%M:%S'
p48
sS'_Logger__Logger_ndc'
p49
(lp50
sbsS'completed'
p51
I1
sS'briefText'
p52
S''
sS'executionHosts'
p53
(lp54
sS'started'
p55
I1
sS'allResults'
p56
(lp57
(icomparetest
FileComparison
p58
(dp59
g9
S'/users/fakeuser/work/master/Testing/Automatic/texttest/carmen/matador/TargetApp/ArtificialUser/generate_in_subperiod/errors.cas'
p60
sg11
I1
sg12
I0
sg13
S'/users/fakeuser/work/master/Testing/Automatic/texttest/carmen/matador/texttesttmp/cas.10fakeuser28Sep093112/ArtificialUser/generate_in_subperiod/errors.cas'
p61
sg15
S'/users/fakeuser/work/master/Testing/Automatic/texttest/carmen/matador/texttesttmp/cas.10fakeuser28Sep093112/ArtificialUser/generate_in_subperiod/framework_tmp/errors.casorigcmp'
p62
sg17
S'errors'
p63
sg19
S'/users/fakeuser/work/master/Testing/Automatic/texttest/carmen/matador/texttesttmp/cas.10fakeuser28Sep093112/ArtificialUser/generate_in_subperiod/framework_tmp/errors.cascmp'
p64
sbag7
a(icomparetest
FileComparison
p65
(dp66
g9
S'/users/fakeuser/work/master/Testing/Automatic/texttest/carmen/matador/TargetApp/ArtificialUser/generate_in_subperiod/solution.cas'
p67
sg11
I99
sg12
I0
sg13
S'/users/fakeuser/work/master/Testing/Automatic/texttest/carmen/matador/texttesttmp/cas.10fakeuser28Sep093112/ArtificialUser/generate_in_subperiod/solution.cas'
p68
sg15
g67
sg17
S'solution'
p69
sg19
g68
sbasS'appWriteDir'
p70
S'/users/fakeuser/work/master/Testing/Automatic/texttest/carmen/matador/texttesttmp/cas.10fakeuser28Sep093112'
p71
sS'correctResults'
p72
(lp73
g58
ag65
asS'lifecycleChange'
p74
S''
sS'failedPrediction'
p75
NsS'newResults'
p76
(lp77
sb.