(ioptimization
OptimizationTestComparison
p0
(dp2
S'category'
p3
S'success'
p4
sS'changedResults'
p5
(lp6
sS'missingResults'
p7
(lp8
sS'freeText'
p9
S''
p10
sS'appAbsPath'
p11
S'/carm/proj/matador2/publish/master/Testing/Automatic/matador'
p12
sS'appWriteDir'
p13
S'/users/jensk/texttesttmp/cas.master.i386_linux.paralleljensk31Jan220002'
p14
sS'costName'
p15
S'cost of plan'
p16
sS'briefText'
p17
g10
sS'executionHosts'
p18
(lp19
S'watsonville'
p20
aS'shelbyville'
p21
aS'pennsville'
p22
aS'bagotville'
p23
asS'logStem'
p24
S'output'
p25
sS'started'
p26
I1
sS'allResults'
p27
(lp28
(icomparefile
FileComparison
p29
(dp30
S'stdFile'
p31
S'/carm/proj/matador2/publish/master/Testing/Automatic/matador/RD_ib_cas_v8scripts/allcrew_buddy_bids/errors.cas'
p32
sS'severity'
p33
I2
sS'differenceId'
p34
I0
sS'differenceCache'
p35
I0
sS'tmpFile'
p36
S'/users/jensk/texttesttmp/cas.master.i386_linux.paralleljensk31Jan220002/RD_ib_cas_v8scripts/allcrew_buddy_bids/errors.cas'
p37
sS'stdCmpFile'
p38
S'/users/jensk/texttesttmp/cas.master.i386_linux.paralleljensk31Jan220002/RD_ib_cas_v8scripts/allcrew_buddy_bids/framework_tmp/errors.casorigcmp'
p39
sS'tmpCmpFile'
p40
S'/users/jensk/texttesttmp/cas.master.i386_linux.paralleljensk31Jan220002/RD_ib_cas_v8scripts/allcrew_buddy_bids/framework_tmp/errors.cascmp'
p41
sS'stem'
p42
S'errors'
p43
sba(icomparefile
FileComparison
p44
(dp45
g31
S'/carm/proj/matador2/publish/master/Testing/Automatic/matador/RD_ib_cas_v8scripts/allcrew_buddy_bids/output.cas'
p46
sg33
I2
sg34
I0
sg35
I0
sg36
S'/users/jensk/texttesttmp/cas.master.i386_linux.paralleljensk31Jan220002/RD_ib_cas_v8scripts/allcrew_buddy_bids/output.cas'
p47
sg38
S'/users/jensk/texttesttmp/cas.master.i386_linux.paralleljensk31Jan220002/RD_ib_cas_v8scripts/allcrew_buddy_bids/framework_tmp/output.casorigcmp'
p48
sg40
S'/users/jensk/texttesttmp/cas.master.i386_linux.paralleljensk31Jan220002/RD_ib_cas_v8scripts/allcrew_buddy_bids/framework_tmp/output.cascmp'
p49
sg42
g25
sba(iperformance
PerformanceFileComparison
p50
(dp51
g31
S'/carm/proj/matador2/publish/master/Testing/Automatic/matador/RD_ib_cas_v8scripts/allcrew_buddy_bids/performance.cas.parallel'
p52
sg34
I0
sS'newPerformance'
p53
F480.69999999999999
sS'oldPerformance'
p54
F475.77999999999997
sg35
I0
sg36
S'/users/jensk/texttesttmp/cas.master.i386_linux.paralleljensk31Jan220002/RD_ib_cas_v8scripts/allcrew_buddy_bids/performance.cas.parallel'
p55
sg38
g52
sS'percentageChange'
p56
F1.0340913867754038
sg40
g55
sS'descriptors'
p57
(dp58
S'goodperf'
p59
S'faster'
p60
sS'badperf'
p61
S'slower'
p62
sS'config'
p63
S'cputime'
p64
ssS'processCount'
p65
I4
sg42
S'performance'
p66
sS'perfComparison'
p67
(iperformance
PerformanceComparison
p68
(dp69
S'percentageChange'
p70
F1.0340913867754038
sS'oldPerformance'
p71
F475.77999999999997
sS'newPerformance'
p72
F480.69999999999999
sS'descriptor'
p73
S'slower'
p74
sbsg33
I3
sba(icomparefile
FileComparison
p75
(dp76
g31
S'/carm/proj/matador2/publish/master/Testing/Automatic/matador/RD_ib_cas_v8scripts/allcrew_buddy_bids/solution.cas'
p77
sg33
I1
sg34
I0
sg35
I0
sg36
S'/users/jensk/texttesttmp/cas.master.i386_linux.paralleljensk31Jan220002/RD_ib_cas_v8scripts/allcrew_buddy_bids/solution.cas'
p78
sg38
g77
sg40
g78
sg42
S'solution'
p79
sbasS'correctResults'
p80
(lp81
g29
ag44
ag50
ag75
asS'lifecycleChange'
p82
g10
sS'failedPrediction'
p83
NsS'completed'
p84
I1
sS'newResults'
p85
(lp86
sb.