(ioptimization
OptimizationTestComparison
p0
(dp2
S'category'
p3
S'success'
p4
sS'changedResults'
p5
(lp6
sS'missingResults'
p7
(lp8
sS'freeText'
p9
S''
p10
sS'appAbsPath'
p11
S'/carm/proj/matador2/publish/master/Testing/Automatic/matador'
p12
sS'appWriteDir'
p13
S'/users/jensk/texttesttmp/cas.master.i386_linux.paralleljensk23Mar220006'
p14
sS'costName'
p15
S'cost of plan'
p16
sS'briefText'
p17
g10
sS'executionHosts'
p18
(lp19
S'bonnyville'
p20
aS'forestville'
p21
aS'smithville'
p22
aS'townsville'
p23
asS'logStem'
p24
S'output'
p25
sS'started'
p26
I1
sS'allResults'
p27
(lp28
(icomparefile
FileComparison
p29
(dp30
S'stdFile'
p31
S'/carm/proj/matador2/publish/master/Testing/Automatic/matador/RD_ib_cas_v8scripts/allcrew_buddy_bids/errors.cas'
p32
sS'severity'
p33
I2
sS'differenceId'
p34
I0
sS'differenceCache'
p35
I0
sS'tmpFile'
p36
S'/users/jensk/texttesttmp/cas.master.i386_linux.paralleljensk23Mar220006/RD_ib_cas_v8scripts/allcrew_buddy_bids/errors.cas'
p37
sS'stdCmpFile'
p38
S'/users/jensk/texttesttmp/cas.master.i386_linux.paralleljensk23Mar220006/RD_ib_cas_v8scripts/allcrew_buddy_bids/framework_tmp/errors.casorigcmp'
p39
sS'tmpCmpFile'
p40
S'/users/jensk/texttesttmp/cas.master.i386_linux.paralleljensk23Mar220006/RD_ib_cas_v8scripts/allcrew_buddy_bids/framework_tmp/errors.cascmp'
p41
sS'stem'
p42
S'errors'
p43
sba(iperformance
PerformanceFileComparison
p44
(dp45
g31
S'/carm/proj/matador2/publish/master/Testing/Automatic/matador/RD_ib_cas_v8scripts/allcrew_buddy_bids/memory.cas'
p46
sg34
I0
sS'newPerformance'
p47
F134.0
sS'oldPerformance'
p48
F122.0
sg35
I0
sg36
S'/users/jensk/texttesttmp/cas.master.i386_linux.paralleljensk23Mar220006/RD_ib_cas_v8scripts/allcrew_buddy_bids/memory.cas'
p49
sg38
g46
sS'percentageChange'
p50
F9.8360655737704921
sg40
g49
sS'descriptors'
p51
(dp52
S'goodperf'
p53
S'smaller'
p54
sS'badperf'
p55
S'larger'
p56
sS'config'
p57
S'memory'
p58
ssS'processCount'
p59
I4
sg42
g58
sS'perfComparison'
p60
(iperformance
PerformanceComparison
p61
(dp62
S'percentageChange'
p63
F9.8360655737704921
sS'oldPerformance'
p64
F122.0
sS'newPerformance'
p65
F134.0
sS'descriptor'
p66
S'larger'
p67
sbsg33
I4
sba(icomparefile
FileComparison
p68
(dp69
g31
S'/carm/proj/matador2/publish/master/Testing/Automatic/matador/RD_ib_cas_v8scripts/allcrew_buddy_bids/output.cas'
p70
sg33
I2
sg34
I0
sg35
I0
sg36
S'/users/jensk/texttesttmp/cas.master.i386_linux.paralleljensk23Mar220006/RD_ib_cas_v8scripts/allcrew_buddy_bids/output.cas'
p71
sg38
S'/users/jensk/texttesttmp/cas.master.i386_linux.paralleljensk23Mar220006/RD_ib_cas_v8scripts/allcrew_buddy_bids/framework_tmp/output.casorigcmp'
p72
sg40
S'/users/jensk/texttesttmp/cas.master.i386_linux.paralleljensk23Mar220006/RD_ib_cas_v8scripts/allcrew_buddy_bids/framework_tmp/output.cascmp'
p73
sg42
g25
sba(iperformance
PerformanceFileComparison
p74
(dp75
g31
S'/carm/proj/matador2/publish/master/Testing/Automatic/matador/RD_ib_cas_v8scripts/allcrew_buddy_bids/performance.cas.parallel'
p76
sg34
I0
sg47
F484.39999999999998
sg48
F475.77999999999997
sg35
I0
sg36
S'/users/jensk/texttesttmp/cas.master.i386_linux.paralleljensk23Mar220006/RD_ib_cas_v8scripts/allcrew_buddy_bids/performance.cas.parallel'
p77
sg38
g76
sg50
F1.8117617386186904
sg40
g77
sg51
(dp78
g53
S'faster'
p79
sg55
S'slower'
p80
sg57
S'cputime'
p81
ssg59
I4
sg42
S'performance'
p82
sg60
(iperformance
PerformanceComparison
p83
(dp84
g63
F1.8117617386186904
sg64
F475.77999999999997
sg65
F484.39999999999998
sg66
S'slower'
p85
sbsg33
I3
sba(icomparefile
FileComparison
p86
(dp87
g31
S'/carm/proj/matador2/publish/master/Testing/Automatic/matador/RD_ib_cas_v8scripts/allcrew_buddy_bids/solution.cas'
p88
sg33
I1
sg34
I0
sg35
I0
sg36
S'/users/jensk/texttesttmp/cas.master.i386_linux.paralleljensk23Mar220006/RD_ib_cas_v8scripts/allcrew_buddy_bids/solution.cas'
p89
sg38
g88
sg40
g89
sg42
S'solution'
p90
sbasS'correctResults'
p91
(lp92
g29
ag44
ag68
ag74
ag86
asS'lifecycleChange'
p93
g10
sS'failedPrediction'
p94
NsS'completed'
p95
I1
sS'newResults'
p96
(lp97
sb.