(iplugins
TestState
p0
(dp1
S'category'
p2
S'killed'
p3
sS'freeText'
p4
S'Test job was killed (while still pending in SGE) at 08:00'
p5
sS'started'
p6
I0
sS'completed'
p7
I1
sS'lifecycleChange'
p8
S''
p9
sS'briefText'
p10
S'killed pending job at 08:00'
p11
sS'executionHosts'
p12
(lp13
sb.