(ioptimization
OptimizationTestComparison
p0
(dp2
S'category'
p3
S'success'
p4
sS'changedResults'
p5
(lp6
sS'missingResults'
p7
(lp8
sS'freeText'
p9
S''
p10
sS'appAbsPath'
p11
S'/carm/proj/matador2/publish/master/Testing/Automatic/matador'
p12
sS'appWriteDir'
p13
S'/users/marek/texttesttmp/cas.master.i386_linux.parallelmarek17Mar220023'
p14
sS'costName'
p15
S'cost of plan'
p16
sS'briefText'
p17
g10
sS'executionHosts'
p18
(lp19
S'woodville'
p20
ag20
aS'townsville'
p21
ag21
asS'logStem'
p22
S'output'
p23
sS'started'
p24
I1
sS'allResults'
p25
(lp26
(icomparefile
FileComparison
p27
(dp28
S'stdFile'
p29
S'/carm/proj/matador2/publish/master/Testing/Automatic/matador/RD_ib_cas_v8scripts/allcrew_buddy_bids/errors.cas'
p30
sS'severity'
p31
I2
sS'differenceId'
p32
I0
sS'differenceCache'
p33
I0
sS'tmpFile'
p34
S'/users/marek/texttesttmp/cas.master.i386_linux.parallelmarek17Mar220023/RD_ib_cas_v8scripts/allcrew_buddy_bids/errors.cas'
p35
sS'stdCmpFile'
p36
S'/users/marek/texttesttmp/cas.master.i386_linux.parallelmarek17Mar220023/RD_ib_cas_v8scripts/allcrew_buddy_bids/framework_tmp/errors.casorigcmp'
p37
sS'tmpCmpFile'
p38
S'/users/marek/texttesttmp/cas.master.i386_linux.parallelmarek17Mar220023/RD_ib_cas_v8scripts/allcrew_buddy_bids/framework_tmp/errors.cascmp'
p39
sS'stem'
p40
S'errors'
p41
sba(icomparefile
FileComparison
p42
(dp43
g29
S'/carm/proj/matador2/publish/master/Testing/Automatic/matador/RD_ib_cas_v8scripts/allcrew_buddy_bids/output.cas'
p44
sg31
I2
sg32
I0
sg33
I0
sg34
S'/users/marek/texttesttmp/cas.master.i386_linux.parallelmarek17Mar220023/RD_ib_cas_v8scripts/allcrew_buddy_bids/output.cas'
p45
sg36
S'/users/marek/texttesttmp/cas.master.i386_linux.parallelmarek17Mar220023/RD_ib_cas_v8scripts/allcrew_buddy_bids/framework_tmp/output.casorigcmp'
p46
sg38
S'/users/marek/texttesttmp/cas.master.i386_linux.parallelmarek17Mar220023/RD_ib_cas_v8scripts/allcrew_buddy_bids/framework_tmp/output.cascmp'
p47
sg40
g23
sba(iperformance
PerformanceFileComparison
p48
(dp49
g29
S'/carm/proj/matador2/publish/master/Testing/Automatic/matador/RD_ib_cas_v8scripts/allcrew_buddy_bids/performance.cas.parallel'
p50
sg32
I0
sS'newPerformance'
p51
F451.30000000000001
sS'oldPerformance'
p52
F475.77999999999997
sg33
I0
sg34
S'/users/marek/texttesttmp/cas.master.i386_linux.parallelmarek17Mar220023/RD_ib_cas_v8scripts/allcrew_buddy_bids/performance.cas.parallel'
p53
sg36
g50
sS'percentageChange'
p54
F5.4243297141590876
sg38
g53
sS'descriptors'
p55
(dp56
S'goodperf'
p57
S'faster'
p58
sS'badperf'
p59
S'slower'
p60
sS'config'
p61
S'cputime'
p62
ssS'processCount'
p63
I4
sg40
S'performance'
p64
sS'perfComparison'
p65
(iperformance
PerformanceComparison
p66
(dp67
S'percentageChange'
p68
F5.4243297141590876
sS'oldPerformance'
p69
F475.77999999999997
sS'newPerformance'
p70
F451.30000000000001
sS'descriptor'
p71
S'faster'
p72
sbsg31
I3
sba(icomparefile
FileComparison
p73
(dp74
g29
S'/carm/proj/matador2/publish/master/Testing/Automatic/matador/RD_ib_cas_v8scripts/allcrew_buddy_bids/solution.cas'
p75
sg31
I1
sg32
I0
sg33
I0
sg34
S'/users/marek/texttesttmp/cas.master.i386_linux.parallelmarek17Mar220023/RD_ib_cas_v8scripts/allcrew_buddy_bids/solution.cas'
p76
sg36
g75
sg38
g76
sg40
S'solution'
p77
sbasS'correctResults'
p78
(lp79
g27
ag42
ag48
ag73
asS'lifecycleChange'
p80
g10
sS'failedPrediction'
p81
NsS'completed'
p82
I1
sS'newResults'
p83
(lp84
sb.