(iqueuesystem
Abandoned
p1
(dp2
S'category'
p3
S'abandoned'
p4
sS'freeText'
p5
S'Could not delete APC test-case umlauf_spiel_slices               in queuesystem: have abandoned it'
sS'started'
p6
I0
sS'completed'
p7
I1
sS'lifecycleChange'
p8
S''
sS'briefText'
p9
S'job deletion failed'
p10
sS'executionHosts'
p11
(lp12
sb.