(iravebased
RuleBuildFailed
p1
(dp2
S'category'
p3
S'unrunnable'
p4
sS'freeText'
p5
S"Trying to use ruleset 'STD+EXP+JAR_no_reference' that failed to build."
sS'started'
p6
I0
sS'completed'
p7
I1
sS'lifecycleChange'
p8
S''
sS'briefText'
p9
S'Ruleset build failed (repeat)'
p10
sS'executionHosts'
p11
(lp12
sb.