(icomparetest
TestComparison
p1
(dp2
S'changedResults'
p3
(lp4
(icomparefile
FileComparison
p5
(dp6
S'stdFile'
p7
S'/users/geoff/work/master/Testing/Automatic/texttest/TestSelf/BatchTests/TargetApp/BothDiff/errors.hello'
p8
sS'severity'
p9
I1
sS'diag'
p10
(ilog4py
Logger
p11
(dp12
S'_Logger__Logger_functionname'
p13
S''
sS'_Logger__Logger_module'
p14
S''
sS'_Logger__Logger_linenumber'
p15
I-1
sS'_Logger__Logger_loglevel'
p16
I1
sS'_Logger__Logger_filename'
p17
S''
sS'_Logger__Logger_ndc'
p18
(lp19
sS'_Logger__Logger_classname'
p20
S'filecomparison'
p21
sS'_Logger__Logger_targets'
p22
(lp23
S'sys.stdout'
p24
asS'_Logger__Logger_formatstring'
p25
S'%T %L %C [%F] %x%M'
p26
sS'_Logger__Logger_configfilename'
p27
S''
sS'_Logger__Logger_classid'
p28
NsS'_Logger__Logger_timelaststep'
p29
F1176464912.453757
sS'_Logger__Logger_useansicodes'
p30
S'FALSE'
p31
sS'_Logger__Logger_timeinit'
p32
F1176464912.453757
sS'_Logger__Logger_timeformat'
p33
S'%m/%d/%y %H:%M:%S'
p34
sS'_Logger__Logger_rotation'
p35
I0
sbsS'differenceCache'
p36
I01
sS'tmpFile'
p37
S'/users/geoff/texttesttmp/hello.13Apr134832/BothDiff/errors.hello'
p38
sS'stdCmpFile'
p39
g8
sS'stem'
p40
S'errors'
p41
sS'textDiffToolMaxSize'
p42
F-1
sS'previewGenerator'
p43
(iplugins
PreviewGenerator
p44
(dp45
S'cutFromStart'
p46
I30
sS'cutFromEnd'
p47
I0
sS'maxWidth'
p48
I500
sbsS'tmpCmpFile'
p49
g38
sS'displayPriority'
p50
I99
sS'textDiffTool'
p51
S'diff'
p52
sba(icomparefile
FileComparison
p53
(dp54
g7
S'/users/geoff/work/master/Testing/Automatic/texttest/TestSelf/BatchTests/TargetApp/BothDiff/output.hello'
p55
sg9
I1
sg10
g11
sg36
I01
sg37
S'/users/geoff/texttesttmp/hello.13Apr134832/BothDiff/output.hello'
p56
sg39
g55
sg40
S'output'
p57
sg42
F-1
sg43
(iplugins
PreviewGenerator
p58
(dp59
g46
I30
sg47
I0
sg48
I500
sbsg49
g56
sg50
I99
sg51
g52
sbasS'started'
p60
I1
sS'completed'
p61
I1
sS'executionHosts'
p62
(lp63
S'portmoller'
p64
asS'observers'
p65
(lp66
sS'passSelf'
p67
I00
sS'lifecycleChange'
p68
S'complete'
p69
sS'category'
p70
S'badPredict'
p71
sS'missingResults'
p72
(lp73
sS'freeText'
p74
S'System reported some error text!'
p75
sg10
(ilog4py
Logger
p76
(dp77
g13
S''
sg14
S''
sg15
I-1
sg16
I1
sg17
S''
sg18
(lp78
sg20
S'testcomparison'
p79
sg22
(lp80
g24
asg25
g26
sg27
S''
sg28
Nsg29
F1176464912.453757
sg30
g31
sg32
F1176464912.453757
sg33
g34
sg35
I0
sbsS'briefText'
p81
S'Error text'
p82
sS'failedPrediction'
p83
(iknownbugs
FailedPrediction
p84
(dp85
g70
g71
sg74
g75
sg60
I0
sg61
I1
sg81
g82
sg62
(lp86
sg65
(lp87
sg67
I00
sg68
S''
sbsS'appAbsPath'
p88
S'/users/geoff/work/master/Testing/Automatic/texttest/TestSelf/BatchTests/TargetApp'
p89
sS'allResults'
p90
(lp91
g5
ag53
asS'correctResults'
p92
(lp93
sS'appWriteDir'
p94
S'/users/geoff/texttesttmp/hello.13Apr134832'
p95
sS'newResults'
p96
(lp97
sb.