(icomparetest
TestComparison
p0
(dp2
S'category'
p3
S'failure'
p4
sS'changedResults'
p5
(lp6
(icomparefile
FileComparison
p7
(dp8
S'freeTextBody'
p9
NsS'stdFile'
p10
S'/users/fakeuser/work/master/Testing/Automatic/texttest/carmen/matador/TargetApp/ArtificialUser/generate_in_subperiod/output.cas.10'
p11
sS'binaryFile'
p12
I00
sS'severity'
p13
I1
sS'differenceId'
p14
I1
sS'differenceCache'
p15
I1
sS'tmpFile'
p16
S'/users/fakeuser/work/master/Testing/Automatic/texttest/carmen/matador/texttesttmp/cas.10fakeuser28Sep093112/cas.10/ArtificialUser/generate_in_subperiod/output.cas'
p17
sS'stdCmpFile'
p18
S'/users/fakeuser/work/master/Testing/Automatic/texttest/carmen/matador/texttesttmp/cas.10fakeuser28Sep093112/cas.10/ArtificialUser/generate_in_subperiod/framework_tmp/output.casorigcmp'
p19
sS'textDiffToolMaxSize'
p20
I-1
sS'previewGenerator'
p21
(iplugins
PreviewGenerator
p22
(dp23
S'cutFromStart'
p24
I500
sS'cutFromEnd'
p25
I0
sS'maxWidth'
p26
I30
sbsS'tmpCmpFile'
p27
S'/users/fakeuser/work/master/Testing/Automatic/texttest/carmen/matador/texttesttmp/cas.10fakeuser28Sep093112/cas.10/ArtificialUser/generate_in_subperiod/framework_tmp/output.cascmp'
p28
sS'stem'
p29
S'output'
p30
sS'textDiffTool'
p31
S'diff'
p32
sbasS'missingResults'
p33
(lp34
sS'freeText'
p35
S'------------------ Differences in output --------------------\n71c71\n<   Total cost of plan..................................: 154585\n---\n>   Total cost of plan..................................: 132585\n210c210\n<   Total cost of plan..................................: 154143\n---\n>   Total cost of plan..................................: 132143\n899c899\n<   Total cost of plan..................................: 115404\n---\n>   Total cost of plan..................................: 113204\n1316c1316\n<   Total cost of plan..................................: 101905\n---\n>   Total cost of plan..................................: 111905\n1455c1455\n<   Total cost of plan..................................: 101805\n---\n>   Total cost of plan..................................: 111805\n1594c1594\n<   Total cost of plan..................................: 101505\n---\n>   Total cost of plan..................................: 111505\n1597c1597\n<   Total cost of unassigned slots......................: 101000\n---\n>   Total cost of unassigned slots......................: 111000\n1620c1620\n<   Number of slots (unassigned)........................: 1010\n'
p36
sS'appAbsPath'
p37
S'/users/fakeuser/work/master/Testing/Automatic/texttest/carmen/matador/TargetApp'
p38
sS'appWriteDir'
p39
S'/users/fakeuser/work/master/Testing/Automatic/texttest/carmen/matador/texttesttmp/cas.10fakeuser28Sep093112'
p40
sS'completed'
p41
I1
sS'briefText'
p42
S''
p43
sS'executionHosts'
p44
(lp45
sS'started'
p46
I1
sS'allResults'
p47
(lp48
(icomparefile
FileComparison
p49
(dp50
g9
Nsg10
S'/users/fakeuser/work/master/Testing/Automatic/texttest/carmen/matador/TargetApp/ArtificialUser/generate_in_subperiod/errors.cas'
p51
sg12
I00
sg13
I1
sg14
I0
sg15
I0
sg16
S'/users/fakeuser/work/master/Testing/Automatic/texttest/carmen/matador/texttesttmp/cas.10fakeuser28Sep093112/cas.10/ArtificialUser/generate_in_subperiod/errors.cas'
p52
sg18
S'/users/fakeuser/work/master/Testing/Automatic/texttest/carmen/matador/texttesttmp/cas.10fakeuser28Sep093112/cas.10/ArtificialUser/generate_in_subperiod/framework_tmp/errors.casorigcmp'
p53
sg20
I-1
sg21
(iplugins
PreviewGenerator
p54
(dp55
g24
I500
sg25
I0
sg26
I30
sbsg27
S'/users/fakeuser/work/master/Testing/Automatic/texttest/carmen/matador/texttesttmp/cas.10fakeuser28Sep093112/cas.10/ArtificialUser/generate_in_subperiod/framework_tmp/errors.cascmp'
p56
sg29
S'errors'
p57
sg31
g32
sbag7
a(icomparefile
FileComparison
p58
(dp59
g9
Nsg10
S'/users/fakeuser/work/master/Testing/Automatic/texttest/carmen/matador/TargetApp/ArtificialUser/generate_in_subperiod/solution.cas'
p60
sg12
I00
sg13
I99
sg14
I0
sg15
I0
sg16
S'/users/fakeuser/work/master/Testing/Automatic/texttest/carmen/matador/texttesttmp/cas.10fakeuser28Sep093112/cas.10/ArtificialUser/generate_in_subperiod/solution.cas'
p61
sg18
g60
sg20
I-1
sg21
(iplugins
PreviewGenerator
p62
(dp63
g24
I500
sg25
I0
sg26
I30
sbsg27
g61
sg29
S'solution'
p64
sg31
g32
sbasS'correctResults'
p65
(lp66
g49
ag58
asS'lifecycleChange'
p67
S'complete'
p68
sS'failedPrediction'
p69
NsS'newResults'
p70
(lp71
sb.