(ioptimization
OptimizationTestComparison
p1
(dp2
S'category'
p3
S'crash'
p4
sS'changedResults'
p5
(lp6
(icomparetest
FileComparison
p7
(dp8
S'stdFile'
p9
S'/carm/proj/matador2/publish/master/Testing/Automatic/matador/RD_ib_cas_v8scripts/allcrew_bb_ixg/errors.cas'
sS'severity'
p10
I2
sS'differenceId'
p11
I1
sS'stdCmpFile'
p12
S'/users/jensk/texttesttmp/cas.master.i386_linux.paralleljensk22Mar220002/RD_ib_cas_v8scripts/allcrew_bb_ixg/framework_tmp/errors.casorigcmp'
sS'diag'
p13
(ilog4py
Logger
p14
(dp15
S'_Logger__Logger_functionname'
p16
S''
sS'_Logger__Logger_module'
p17
S''
sS'_Logger__Logger_linenumber'
p18
I-1
sS'_Logger__Logger_classname'
p19
S'filecomparison'
p20
sS'_Logger__Logger_targets'
p21
(lp22
S'sys.stdout'
p23
asS'_Logger__Logger_formatstring'
p24
S'%T %L %C [%F] %x%M'
p25
sS'_Logger__Logger_filename'
p26
S''
sS'_Logger__Logger_classid'
p27
NsS'_Logger__Logger_timelaststep'
p28
F1143062437.7477341
sS'_Logger__Logger_configfilename'
p29
S''
sS'_Logger__Logger_ndc'
p30
(lsS'_Logger__Logger_useansicodes'
p31
S'FALSE'
p32
sS'_Logger__Logger_timeinit'
p33
F1143062437.7477341
sS'_Logger__Logger_loglevel'
p34
I1
sS'_Logger__Logger_timeformat'
p35
S'%m/%d/%y %H:%M:%S'
p36
sS'_Logger__Logger_rotation'
p37
I0
sbsS'tmpFile'
p38
S'/users/jensk/texttesttmp/cas.master.i386_linux.paralleljensk22Mar220002/RD_ib_cas_v8scripts/allcrew_bb_ixg/errors.cas'
sS'tmpCmpFile'
p39
S'/users/jensk/texttesttmp/cas.master.i386_linux.paralleljensk22Mar220002/RD_ib_cas_v8scripts/allcrew_bb_ixg/framework_tmp/errors.cascmp'
sS'stem'
p40
S'errors'
p41
sba(icomparetest
FileComparison
p42
(dp43
g9
S'/carm/proj/matador2/publish/master/Testing/Automatic/matador/RD_ib_cas_v8scripts/allcrew_bb_ixg/output.cas'
sg10
I2
sg11
I1
sg12
S'/users/jensk/texttesttmp/cas.master.i386_linux.paralleljensk22Mar220002/RD_ib_cas_v8scripts/allcrew_bb_ixg/framework_tmp/output.casorigcmp'
sg13
g14
sg38
S'/users/jensk/texttesttmp/cas.master.i386_linux.paralleljensk22Mar220002/RD_ib_cas_v8scripts/allcrew_bb_ixg/output.cas'
sg39
S'/users/jensk/texttesttmp/cas.master.i386_linux.paralleljensk22Mar220002/RD_ib_cas_v8scripts/allcrew_bb_ixg/framework_tmp/output.cascmp'
sg40
S'output'
p44
sbasS'missingResults'
p45
(lp46
(icomparetest
FileComparison
p47
(dp48
g9
S'/carm/proj/matador2/publish/master/Testing/Automatic/matador/RD_ib_cas_v8scripts/allcrew_bb_ixg/solution.cas'
p49
sg10
I1
sg11
I0
sg12
g49
sg13
g14
sg38
S'/users/jensk/texttesttmp/cas.master.i386_linux.paralleljensk22Mar220002/RD_ib_cas_v8scripts/allcrew_bb_ixg/solution.cas'
p50
sg39
g50
sg40
S'solution'
p51
sbasS'freeText'
p52
S"Program terminated with signal 11, Segmentation fault.\nStack trace from gdb :\n?? \nCarmenResource::inqValue \nCarmenPathManager::getDir \nCarmenPathManager::getDir \nCarmenPathManager::getAllEtabPaths \nRAVEGlobal::RAVEGlobal \nApplicationBase::doInitSingletons \nApplicationStartup::runApplication \ncomponent_main \nmain \n------------------ Differences in errors --------------------\n1,73d0\n< Xpress-MP Hyper Integer Barrier Optimizer Release 16.10.05\n< (c) Copyright Dash Associates 1984-2005\n< Licensed for use by: Carmen Group products\n< -- Unordered text as found by filter 'Load ETABLE' --\n< Load ETABLE _topmodule.aircraft_group, <texttest_tmp_dir>/RD_ib_cas_v8_user/crc/etable/.GPCSetupEtables/aircraft_familly.etab\n< Load ETABLE _topmodule.bad_course_table, <texttest_tmp_dir>/RD_ib_cas_v8_user/ETABLES/05_A320_TEC/crew_bad_course_dates.etab\n< Load ETABLE _topmodule.compl_func_for_crew, <texttest_tmp_dir>/RD_ib_cas_v8_user/ETABLES/05_A320_TEC/compl_func.etab\n< Load ETABLE _topmodule.crew_base1, <texttest_tmp_dir>/RD_ib_cas_v8_user/ETABLES/05_A320_TEC/crew_table.etab\n< Load ETABLE _topmodule.crew_base2, <texttest_tmp_dir>/RD_ib_cas_v8_user/ETABLES/05_A320_TEC/crew_table.etab\n< Load ETABLE _topmodule.crew_base2_days_off, <texttest_tmp_dir>/RD_ib_cas_v8_user/ETABLES/05_A320_TEC/crew_table.etab\n< Load ETABLE _topmodule.crew_base2_start, <texttest_tmp_dir>/RD_ib_cas_v8_user/ETABLES/05_A320_TEC/crew_table.etab\n< Load ETABLE _topmodule.crew_base3, <texttest_tmp_dir>/RD_ib_cas_v8_user/ETABLES/05_A320_TEC/crew_table.etab\n< Load ETABLE _topmodule.crew_base3_days_off, <texttest_tmp_dir>/RD_ib_cas_v8_user/ETABLES/05_A320_TEC/crew_table.etab\n< Load ETABLE _topmodule.crew_base3_start, <texttest_tmp_dir>/RD_ib_cas_v8_user/ETABLES/05_A320_TEC/crew_table.etab\n< Load ETABLE _topmodule.crew_compl_func, <texttest_tmp_dir>/RD_ib_cas_v8_user/ETABLES/05_A320_TEC/compl_func.etab\n< Load ETABLE _topmodule.crew_compl_func2, <texttest_tmp_dir>/RD_ib_cas_v8_user/ETABLES/05_A320_TEC/compl_func.etab\n< Load ETABLE _topmodule.crew_compl_func2_start, <texttest_tmp_dir>/RD_ib_cas_v8_user/ETABLES/05_A320_TEC/compl_func.etab\n< Load ETABLE _topmodule.crew_compl_func_start, <texttest_tmp_dir>/RD_ib_cas_v8_user/ETABLES/05_A320_TEC/compl_func.etab\n< Load ETABLE _topmodule.crew_end_contract2, <texttest_tmp_dir>/RD_ib_cas_v8_user/ETABLES/05_A320_TEC/crew_table.etab\n< Load ETABLE _topmodule.crew_end_license2, <texttest_tmp_dir>/RD_ib_cas_v8_user/ETABLES/05_A320_TEC/crew_table.etab\n< Load ETABLE _topmodule.crew_extra_motherhood_days_off_table, <texttest_tmp_dir>/RD_ib_cas_v8_user/ETABLES/05_A320_TEC/crew_table.etab\n< Load ETABLE _topmodule.crew_fleet, <texttest_tmp_dir>/RD_ib_cas_v8_user/ETABLES/05_A320_TEC/crew_table.etab\n< Load ETABLE _topmodule.crew_fleet_end2, <texttest_tmp_dir>/RD_ib_cas_v8_user/ETABLES/05_A320_TEC/crew_table.etab\n< Load ETABLE _topmodule.crew_fleet_start, <texttest_tmp_dir>/RD_ib_cas_v8_user/ETABLES/05_A320_TEC/crew_table.etab\n< Load ETABLE _topmodule.crew_is_standby_table, <texttest_tmp_dir>/RD_ib_cas_v8_user/ETABLES/05_A320_TEC/compl_func.etab\n< Load ETABLE _topmodule.crew_main_func, <texttest_tmp_dir>/RD_ib_cas_v8_user/ETABLES/05_A320_TEC/crew_table.etab\n< Load ETABLE _topmodule.crew_main_func_start, <texttest_tmp_dir>/RD_ib_cas_v8_user/ETABLES/05_A320_TEC/crew_table.etab\n< Load ETABLE _topmodule.crew_month_max_block_time, <texttest_tmp_dir>/RD_ib_cas_v8_user/ETABLES/05_A320_TEC/crew_table.etab\n< Load ETABLE _topmodule.crew_num_auto1, <texttest_tmp_dir>/RD_ib_cas_v8_user/ETABLES/05_A320_TEC/automatic_tasks_copy.etab\n------------------ Differences in output --------------------\n5,2447d4\n< \n< -- Matador::run --\n< \n< Using Filer to load SubPlan : Timetable/Version/Matador/Matador_All_Crew_Ref_BuddyBids\n< \n< Parser: Reading file /config/crew_categories, section headed by 'crew_cat'\n< Loaded Crew Category : CT\n< Loaded Crew Category : FO\n< Loaded Crew Category : OT\n< Loaded Crew Category : IN\n< Loaded Crew Category : CS\n< Loaded Crew Category : SC\n< Loaded Crew Category : TP\n< Loaded Crew Category : ST\n< Loaded Crew Category : GL\n< Loaded Crew Category : GU\n< Loading rule set Matador_CO_no_roster_cost\n< \n< \n< Filer: Loading subplan-specific files\n< Parser: Reading file /APC_FILES/problems\n< Loaded Crew Vector : 1/1/0//0/1/0/0/0/1/0/0/0\n< Set period of problem to 2001-03-29T00:00 -> 2001-06-03T23:59\n< \n< Parser: Reading file /APC_FILES/rules, section headed by 'SECTION rules'\n< Parser: Reading file /APC_FILES/rules, section headed by '<PARAMETERS>'\n< Parser: Reading file /APC_FILES/rules, section headed by '<SETS>'\n< Parser: Reading file /APC_FILES/bases\n< Parser: Reading file /APC_FILES/flights\n------------------ Missing result in solution --------------------\nSECTION apc_oags Solution_15\n147;APC_SEGMENT_KEY_1;APC_SEGMENT;APC_SEGMENT_TYPE;FLIGHT_CARRIER;FLIGHT_NUMBER;FLIGHT_DEP_AIRP;FLIGHT_ARR_AIRP;FLIGHT_DATE;FLIGHT_DEP_TIME;FLIGHT_BLOCK_TIME;FLIGHT_IATA;CUSTOM_AC_TYPE;FLIGHT_SUFFIX;FLIGHT_LEG_NO;TASK_SUB_CODE;ONWARD_SEGMENT_KEY;FLIGHT_SERVICE_TYPE;BOOKED_CREW_VECTOR_LENGTH;BOOKED_CREW_VECTOR;AC_OWNER;FLIGHT_ONW_FLIGHT_NUM;PASSENGER_TERMINAL_DEPARTURE_STATION;PASSENGER_TERMINAL_ARRIVAL_STATION;FIRST_CLASS_CAP;BUSINESS_CLASS_CAP;ECONOMY_CLASS_CAP;FOURTH_CLASS_CAP;\nSECTION ground_transport Solution_15\n147;APC_SEGMENT_KEY_1;APC_SEGMENT;APC_SEGMENT_TYPE;FLIGHT_CARRIER;FLIGHT_NUMBER;FLIGHT_DEP_AIRP;FLIGHT_ARR_AIRP;FLIGHT_DATE;FLIGHT_DEP_TIME;FLIGHT_BLOCK_TIME;FLIGHT_IATA;CUSTOM_AC_TYPE;FLIGHT_SUFFIX;FLIGHT_LEG_NO;TASK_SUB_CODE;ONWARD_SEGMENT_KEY;FLIGHT_SERVICE_TYPE;BOOKED_CREW_VECTOR_LENGTH;BOOKED_CREW_VECTOR;AC_OWNER;FLIGHT_ONW_FLIGHT_NUM;PASSENGER_TERMINAL_DEPARTURE_STATION;PASSENGER_TERMINAL_ARRIVAL_STATION;FIRST_CLASS_CAP;BUSINESS_CLASS_CAP;ECONOMY_CLASS_CAP;FOURTH_CLASS_CAP;\nSECTION apc_assignments Solution_15\n176;APC_CREW_ID;APC_CREW_SIGNATURE;APC_CREW_TRIP_COUNT;\n178;APC_TRIP_PTR;APC_TRIP_BIT_FIELD;APC_TRIP_ASSIGNED_POS;APC_TRIP_CODES;\n177;192776;AGUILELLA VIVES        ,192776;1;\n179;684;0x0;1;;\n177;294475;AGUIRRE QUINTERO       ,294475;13;\n179;16;0x0;0;;\n179;221;0x0;0;;\n179;1087;0x1;0;;\n179;1088;0x1;0;;\n179;1089;0x1;0;;\n179;1090;0x1;0;;\n179;1091;0x1;0;;\n179;1092;0x1;0;;\n179;1093;0x1;0;;\n179;1094;0x1;0;;\n179;1095;0x1;0;;\n179;903;0x0;0;;\n179;1096;0x1;0;;\n177;024371;AHMED CHAVARINO        ,024371;17;\n179;18;0x0;1;;\n179;1104;0x1;1;;\n179;1105;0x1;1;;\n179;1106;0x1;1;;\n179;1107;0x1;1;;\n179;1108;0x1;1;;\n"
sS'appAbsPath'
p53
S'/carm/proj/matador2/publish/master/Testing/Automatic/matador'
sg13
(ilog4py
Logger
(dp54
g16
S''
sg17
S''
sg18
I-1
sg19
S'testcomparison'
p55
sg21
(lp56
g23
asg24
g25
sg26
S''
sg27
Nsg28
F1143062437.7477341
sg29
S''
sg30
(lsg31
g32
sg33
F1143062437.7477341
sg34
I1
sg35
g36
sg37
I0
sbsS'costName'
p57
S'cost of plan'
sS'briefText'
p58
S'Segmentation fault in ??'
p59
sS'executionHosts'
p60
(lp61
S'circleville'
p62
aS'roosterville'
p63
asS'logStem'
p64
g44
sS'started'
p65
I1
sS'allResults'
p66
(lp67
g7
ag42
a(iperformance
PerformanceFileComparison
p68
(dp69
g9
S'/carm/proj/matador2/publish/master/Testing/Automatic/matador/RD_ib_cas_v8scripts/allcrew_bb_ixg/performance.cas.parallel'
p70
sg11
I0
sS'newPerformance'
p71
F0.10000000000000001
sg12
g70
sS'oldPerformance'
p72
F200.83000000000001
sg38
S'/users/jensk/texttesttmp/cas.master.i386_linux.paralleljensk22Mar220002/RD_ib_cas_v8scripts/allcrew_bb_ixg/performance.cas.parallel'
p73
sg39
g73
sg40
S'performance'
p74
sS'percentageChange'
p75
F200730.00000000003
sg13
g14
sS'processCount'
p76
I2
sS'descriptors'
p77
(dp78
S'goodperf'
p79
S'faster'
p80
sS'badperf'
p81
S'slower'
p82
sS'config'
p83
S'cputime'
p84
ssg10
I3
sbag47
asS'appWriteDir'
p85
S'/users/jensk/texttesttmp/cas.master.i386_linux.paralleljensk22Mar220002'
sS'correctResults'
p86
(lp87
g68
asS'lifecycleChange'
p88
S''
sS'failedPrediction'
p89
(iknownbugs
FailedPrediction
(dp90
g3
g4
sg52
S'Program terminated with signal 11, Segmentation fault.\nStack trace from gdb :\n?? \nCarmenResource::inqValue \nCarmenPathManager::getDir \nCarmenPathManager::getDir \nCarmenPathManager::getAllEtabPaths \nRAVEGlobal::RAVEGlobal \nApplicationBase::doInitSingletons \nApplicationStartup::runApplication \ncomponent_main \nmain \n'
sg65
I1
sS'completed'
p91
I0
sg88
S''
sg58
g59
sg60
g61
sbsg91
I1
sS'newResults'
p92
(lsb.
