(iperformance
PerformanceTestComparison
p1
(dp2
S'category'
p3
S'success'
p4
sS'changedResults'
p5
(lp6
sS'freeText'
p7
S''
sS'started'
p8
I1
sS'diag'
p9
(ilog4py
Logger
p10
(dp11
S'_Logger__Logger_functionname'
p12
S''
sS'_Logger__Logger_module'
p13
S''
sS'_Logger__Logger_linenumber'
p14
I-1
sS'_Logger__Logger_classname'
p15
S'testcomparison'
p16
sS'_Logger__Logger_targets'
p17
(lp18
S'sys.stdout'
p19
asS'_Logger__Logger_formatstring'
p20
S'%T %L %C [%F] %x%M'
p21
sS'_Logger__Logger_filename'
p22
S''
sS'_Logger__Logger_classid'
p23
NsS'_Logger__Logger_timelaststep'
p24
F1095339825.6825659
sS'_Logger__Logger_configfilename'
p25
S''
sS'_Logger__Logger_useansicodes'
p26
S'FALSE'
p27
sS'_Logger__Logger_timeinit'
p28
F1095339825.6825659
sS'_Logger__Logger_loglevel'
p29
I1
sS'_Logger__Logger_timeformat'
p30
S'%m/%d/%y %H:%M:%S'
p31
sS'_Logger__Logger_ndc'
p32
(lp33
sbsS'completed'
p34
I1
sS'briefText'
p35
S''
sS'executionHosts'
p36
(lp37
S'frankfort'
p38
asS'appWriteDir'
p39
S'/users/fakeuser/work/master/Testing/Automatic/texttest/unixConfig/PerformanceTests/TargetApp'
sS'appAbsPath'
p40
S'/users/fakeuser/work/master/Testing/Automatic/texttest/unixConfig/PerformanceTests/TargetApp'
p41
sS'allResults'
p42
(lp43
(icomparetest
FileComparison
p44
(dp45
S'stdFile'
p46
S'/users/fakeuser/work/master/Testing/Automatic/texttest/unixConfig/PerformanceTests/TargetApp/Success/errors.perf'
p47
sS'severity'
p48
I1
sS'differenceId'
p49
I0
sS'tmpFile'
p50
S'/users/fakeuser/work/master/Testing/Automatic/texttest/unixConfig/PerformanceTests/texttesttmp/./perffakeuser15Sep144224/Success/errors.perf'
p51
sS'stdCmpFile'
p52
g47
sS'stem'
p53
S'errors'
p54
sS'tmpCmpFile'
p55
g51
sba(icomparetest
FileComparison
p56
(dp57
g46
S'/users/fakeuser/work/master/Testing/Automatic/texttest/unixConfig/PerformanceTests/TargetApp/Success/output.perf'
p58
sg48
I1
sg49
I0
sg50
S'/users/fakeuser/work/master/Testing/Automatic/texttest/unixConfig/PerformanceTests/texttesttmp/./perffakeuser15Sep144224/Success/output.perf'
p59
sg52
g58
sg53
S'output'
p60
sg55
g59
sba(iperformance
PerformanceFileComparison
p61
(dp62
g46
S'/users/fakeuser/work/master/Testing/Automatic/texttest/unixConfig/PerformanceTests/TargetApp/Success/performance.perf'
p63
sS'newPerformance'
p64
F5
sg49
I0
sg52
g63
sS'oldPerformance'
p65
F5
sg50
S'/users/fakeuser/work/master/Testing/Automatic/texttest/unixConfig/PerformanceTests/texttesttmp/./perffakeuser15Sep144224/Success/performance.perf'
p66
sg55
g66
sg53
S'performance'
p67
sg9
(ilog4py
Logger
p68
(dp69
g12
S''
sg13
S''
sg14
I-1
sg15
g67
sg17
(lp70
g19
asg20
g21
sg22
S''
sg23
Nsg24
F1095339825.6825659
sg25
S''
sg26
g27
sg28
F1095339825.6825659
sg29
I1
sg30
g31
sg32
(lp71
sbsS'percentageChange'
p72
F0
sS'descriptors'
p73
(dp74
S'goodperf'
p75
S'faster'
p76
sS'badperf'
p77
S'slower'
p78
sS'config'
p79
S'cputime'
p80
ssg48
I2
sbasS'execHost'
p81
g38
sS'correctResults'
p82
(lp83
g44
ag56
ag61
asS'lifecycleChange'
p84
S'complete'
p85
sS'failedPrediction'
p86
NsS'newResults'
p87
(lp88
sb.
