(iplugins
TestState
p1
(dp2
S'category'
p3
S'unrunnable'
p4
sS'freeText'
p5
S'No results produced on graceville, presuming problems running test there. Job ID was 1070508'
sS'started'
p6
I0
sS'completed'
p7
I1
sS'briefText'
p8
S'UNRUNNABLE'
p9
sS'executionHosts'
p10
(lp11
sb.