(iplugins
TestState
p0
(dp1
S'category'
p2
S'unrunnable'
p3
sS'freeText'
p4
S'No results produced on graceville, presuming problems running test there. Job ID was 1070508'
p5
sS'started'
p6
I0
sS'completed'
p7
I1
sS'briefText'
p8
S'UNRUNNABLE'
p9
sS'executionHosts'
p10
(lp11
sb.